ARM GAS  C:\Users\pajoh\AppData\Local\Temp\cc5o3qNl.s 			page 1


   1              		.syntax unified
   2              		.cpu cortex-m3
   3              		.fpu softvfp
   4              		.eabi_attribute 20, 1
   5              		.eabi_attribute 21, 1
   6              		.eabi_attribute 23, 3
   7              		.eabi_attribute 24, 1
   8              		.eabi_attribute 25, 1
   9              		.eabi_attribute 26, 1
  10              		.eabi_attribute 30, 1
  11              		.eabi_attribute 34, 1
  12              		.eabi_attribute 18, 4
  13              		.thumb
  14              		.syntax unified
  15              		.file	"datalogger.c"
  16              		.text
  17              	.Ltext0:
  18              		.cfi_sections	.debug_frame
  19              		.section	.text.logger_init,"ax",%progbits
  20              		.align	2
  21              		.global	logger_init
  22              		.thumb
  23              		.thumb_func
  24              		.type	logger_init, %function
  25              	logger_init:
  26              	.LFB1:
  27              		.file 1 "datalogger.c"
   1:datalogger.c  **** /* ========================================
   2:datalogger.c  ****  *
   3:datalogger.c  ****  * Copyright YOUR COMPANY, THE YEAR
   4:datalogger.c  ****  * All Rights Reserved
   5:datalogger.c  ****  * UNPUBLISHED, LICENSED SOFTWARE.
   6:datalogger.c  ****  *
   7:datalogger.c  ****  * CONFIDENTIAL AND PROPRIETARY INFORMATION
   8:datalogger.c  ****  * WHICH IS THE PROPERTY OF your company.
   9:datalogger.c  ****  *
  10:datalogger.c  ****  * ========================================
  11:datalogger.c  **** */
  12:datalogger.c  **** 
  13:datalogger.c  **** #include "datalogger.h"
  14:datalogger.c  **** 
  15:datalogger.c  **** void logger_init(Log_ts * log){
  28              		.loc 1 15 0
  29              		.cfi_startproc
  30              		@ args = 0, pretend = 0, frame = 0
  31              		@ frame_needed = 0, uses_anonymous_args = 0
  32              		@ link register save eliminated.
  33              	.LVL0:
  16:datalogger.c  ****     int i;
  17:datalogger.c  ****     for(i = 0; i < LOG_BUFF_SIZE; i++){
  34              		.loc 1 17 0
  35 0000 0023     		movs	r3, #0
  36 0002 04E0     		b	.L2
  37              	.LVL1:
  38              	.L3:
  18:datalogger.c  ****         log->CircBuff.data[i] = 0;   
  39              		.loc 1 18 0 discriminator 3
ARM GAS  C:\Users\pajoh\AppData\Local\Temp\cc5o3qNl.s 			page 2


  40 0004 C218     		adds	r2, r0, r3
  41 0006 0021     		movs	r1, #0
  42 0008 82F80011 		strb	r1, [r2, #256]
  17:datalogger.c  ****         log->CircBuff.data[i] = 0;   
  43              		.loc 1 17 0 discriminator 3
  44 000c 0133     		adds	r3, r3, #1
  45              	.LVL2:
  46              	.L2:
  17:datalogger.c  ****         log->CircBuff.data[i] = 0;   
  47              		.loc 1 17 0 is_stmt 0 discriminator 1
  48 000e 3F2B     		cmp	r3, #63
  49 0010 F8DD     		ble	.L3
  19:datalogger.c  ****     }
  20:datalogger.c  ****     log->num_vars = 0;
  50              		.loc 1 20 0 is_stmt 1
  51 0012 0023     		movs	r3, #0
  52              	.LVL3:
  53 0014 C0F84831 		str	r3, [r0, #328]
  21:datalogger.c  ****     log->CircBuff.data_index = 0;
  54              		.loc 1 21 0
  55 0018 C0F84031 		str	r3, [r0, #320]
  22:datalogger.c  ****     log->CircBuff.data_size = LOG_BUFF_SIZE;
  56              		.loc 1 22 0
  57 001c 4023     		movs	r3, #64
  58 001e C0F84431 		str	r3, [r0, #324]
  59 0022 7047     		bx	lr
  60              		.cfi_endproc
  61              	.LFE1:
  62              		.size	logger_init, .-logger_init
  63              		.section	.text.attach_variable,"ax",%progbits
  64              		.align	2
  65              		.global	attach_variable
  66              		.thumb
  67              		.thumb_func
  68              		.type	attach_variable, %function
  69              	attach_variable:
  70              	.LFB2:
  23:datalogger.c  **** }
  24:datalogger.c  **** 
  25:datalogger.c  **** void attach_variable(void * var, enum types_e type, Log_ts * log){
  71              		.loc 1 25 0
  72              		.cfi_startproc
  73              		@ args = 0, pretend = 0, frame = 8
  74              		@ frame_needed = 0, uses_anonymous_args = 0
  75              		@ link register save eliminated.
  76              	.LVL4:
  77 0000 10B4     		push	{r4}
  78              		.cfi_def_cfa_offset 4
  79              		.cfi_offset 4, -4
  80 0002 83B0     		sub	sp, sp, #12
  81              		.cfi_def_cfa_offset 16
  26:datalogger.c  ****     Var_ts temp_var;
  27:datalogger.c  ****     temp_var.type = type;
  82              		.loc 1 27 0
  83 0004 8DF80410 		strb	r1, [sp, #4]
  28:datalogger.c  ****     temp_var.var_ptr = var;
  84              		.loc 1 28 0
ARM GAS  C:\Users\pajoh\AppData\Local\Temp\cc5o3qNl.s 			page 3


  85 0008 0090     		str	r0, [sp]
  29:datalogger.c  ****     if(log->num_vars < LOG_SIZE){
  86              		.loc 1 29 0
  87 000a D2F84831 		ldr	r3, [r2, #328]
  88 000e 1F2B     		cmp	r3, #31
  89 0010 09DC     		bgt	.L4
  30:datalogger.c  ****         log->vars[log->num_vars] = temp_var;
  90              		.loc 1 30 0
  91 0012 02EBC304 		add	r4, r2, r3, lsl #3
  92 0016 02A9     		add	r1, sp, #8
  93              	.LVL5:
  94 0018 11E90300 		ldmdb	r1, {r0, r1}
  95              	.LVL6:
  96 001c 84E80300 		stmia	r4, {r0, r1}
  31:datalogger.c  ****         log->num_vars++;
  97              		.loc 1 31 0
  98 0020 0133     		adds	r3, r3, #1
  99 0022 C2F84831 		str	r3, [r2, #328]
 100              	.L4:
  32:datalogger.c  ****     }
  33:datalogger.c  ****     return;
  34:datalogger.c  **** }
 101              		.loc 1 34 0
 102 0026 03B0     		add	sp, sp, #12
 103              		.cfi_def_cfa_offset 4
 104              	.LVL7:
 105              		@ sp needed
 106 0028 10BC     		pop	{r4}
 107              		.cfi_restore 4
 108              		.cfi_def_cfa_offset 0
 109              	.LVL8:
 110 002a 7047     		bx	lr
 111              		.cfi_endproc
 112              	.LFE2:
 113              		.size	attach_variable, .-attach_variable
 114              		.section	.text.circbuff_add_byte,"ax",%progbits
 115              		.align	2
 116              		.global	circbuff_add_byte
 117              		.thumb
 118              		.thumb_func
 119              		.type	circbuff_add_byte, %function
 120              	circbuff_add_byte:
 121              	.LFB5:
  35:datalogger.c  **** 
  36:datalogger.c  **** void logger(Log_ts * log){
  37:datalogger.c  ****     //fetch most recent values of all vars, store in data array
  38:datalogger.c  ****     //separate by a delimiter
  39:datalogger.c  ****     
  40:datalogger.c  ****     //important to do this with a circular buffer 
  41:datalogger.c  ****     int i;
  42:datalogger.c  ****     int max_size;
  43:datalogger.c  **** 
  44:datalogger.c  ****     for(i = 0; i < log->num_vars; i++){
  45:datalogger.c  ****         //add each logged var to the data array
  46:datalogger.c  ****         
  47:datalogger.c  ****         circbuff_add((log->vars[i].var_ptr),var_size(log->vars[i].type),&log->CircBuff);
  48:datalogger.c  ****     }
ARM GAS  C:\Users\pajoh\AppData\Local\Temp\cc5o3qNl.s 			page 4


  49:datalogger.c  ****     
  50:datalogger.c  ****     return;
  51:datalogger.c  **** }
  52:datalogger.c  **** 
  53:datalogger.c  **** void circbuff_add(void * data, int size, CircBuff_ts * circbuff){
  54:datalogger.c  ****     int i;
  55:datalogger.c  ****     for(i = 0; i < size; i++){
  56:datalogger.c  ****         switch(size){
  57:datalogger.c  ****             case 1:
  58:datalogger.c  ****                 circbuff_add_byte(*((uint8 *)data),circbuff);
  59:datalogger.c  ****             break;
  60:datalogger.c  ****             
  61:datalogger.c  ****             case 2:
  62:datalogger.c  ****                 circbuff_add_byte((uint8)(*((uint16 *)data)>>i*8),circbuff);
  63:datalogger.c  ****             break;
  64:datalogger.c  ****             
  65:datalogger.c  ****             case 4:
  66:datalogger.c  ****                 circbuff_add_byte((uint8)(*((uint32 *)data)>>i*8),circbuff);
  67:datalogger.c  ****             break;
  68:datalogger.c  ****             
  69:datalogger.c  ****             case 8:
  70:datalogger.c  ****                 circbuff_add_byte((uint8)(*((uint64 *)data)>>i*8),circbuff);
  71:datalogger.c  ****             break;
  72:datalogger.c  ****                 
  73:datalogger.c  ****             default:
  74:datalogger.c  ****                 ;
  75:datalogger.c  ****                 
  76:datalogger.c  ****         }
  77:datalogger.c  ****     }
  78:datalogger.c  **** }
  79:datalogger.c  **** 
  80:datalogger.c  **** void circbuff_add_byte(uint8 data, CircBuff_ts * circbuff){
 122              		.loc 1 80 0
 123              		.cfi_startproc
 124              		@ args = 0, pretend = 0, frame = 0
 125              		@ frame_needed = 0, uses_anonymous_args = 0
 126              		@ link register save eliminated.
 127              	.LVL9:
  81:datalogger.c  ****     
  82:datalogger.c  ****     //will store data until the buffer is full, then do nothing
  83:datalogger.c  ****     if(circbuff->data_index < circbuff->data_size){
 128              		.loc 1 83 0
 129 0000 0B6C     		ldr	r3, [r1, #64]
 130 0002 4A6C     		ldr	r2, [r1, #68]
 131 0004 9342     		cmp	r3, r2
 132 0006 02DA     		bge	.L7
  84:datalogger.c  ****         circbuff->data[circbuff->data_index] = data;
 133              		.loc 1 84 0
 134 0008 C854     		strb	r0, [r1, r3]
  85:datalogger.c  ****         circbuff->data_index = circbuff->data_index + 1;
 135              		.loc 1 85 0
 136 000a 0133     		adds	r3, r3, #1
 137 000c 0B64     		str	r3, [r1, #64]
 138              	.L7:
 139 000e 7047     		bx	lr
 140              		.cfi_endproc
 141              	.LFE5:
ARM GAS  C:\Users\pajoh\AppData\Local\Temp\cc5o3qNl.s 			page 5


 142              		.size	circbuff_add_byte, .-circbuff_add_byte
 143              		.section	.text.circbuff_add,"ax",%progbits
 144              		.align	2
 145              		.global	circbuff_add
 146              		.thumb
 147              		.thumb_func
 148              		.type	circbuff_add, %function
 149              	circbuff_add:
 150              	.LFB4:
  53:datalogger.c  ****     int i;
 151              		.loc 1 53 0
 152              		.cfi_startproc
 153              		@ args = 0, pretend = 0, frame = 0
 154              		@ frame_needed = 0, uses_anonymous_args = 0
 155              	.LVL10:
 156 0000 F8B5     		push	{r3, r4, r5, r6, r7, lr}
 157              		.cfi_def_cfa_offset 24
 158              		.cfi_offset 3, -24
 159              		.cfi_offset 4, -20
 160              		.cfi_offset 5, -16
 161              		.cfi_offset 6, -12
 162              		.cfi_offset 7, -8
 163              		.cfi_offset 14, -4
 164 0002 0646     		mov	r6, r0
 165 0004 0D46     		mov	r5, r1
 166 0006 1746     		mov	r7, r2
 167              	.LVL11:
  55:datalogger.c  ****         switch(size){
 168              		.loc 1 55 0
 169 0008 0024     		movs	r4, #0
 170 000a 34E0     		b	.L10
 171              	.LVL12:
 172              	.L17:
  56:datalogger.c  ****             case 1:
 173              		.loc 1 56 0
 174 000c 6B1E     		subs	r3, r5, #1
 175 000e 072B     		cmp	r3, #7
 176 0010 30D8     		bhi	.L11
 177 0012 DFE803F0 		tbb	[pc, r3]
 178              	.L13:
 179 0016 04       		.byte	(.L12-.L13)/2
 180 0017 09       		.byte	(.L14-.L13)/2
 181 0018 2F       		.byte	(.L11-.L13)/2
 182 0019 12       		.byte	(.L15-.L13)/2
 183 001a 2F       		.byte	(.L11-.L13)/2
 184 001b 2F       		.byte	(.L11-.L13)/2
 185 001c 2F       		.byte	(.L11-.L13)/2
 186 001d 1B       		.byte	(.L16-.L13)/2
 187              		.p2align 1
 188              	.L12:
  58:datalogger.c  ****             break;
 189              		.loc 1 58 0
 190 001e 3946     		mov	r1, r7
 191 0020 3078     		ldrb	r0, [r6]	@ zero_extendqisi2
 192 0022 FFF7FEFF 		bl	circbuff_add_byte
 193              	.LVL13:
  59:datalogger.c  ****             
ARM GAS  C:\Users\pajoh\AppData\Local\Temp\cc5o3qNl.s 			page 6


 194              		.loc 1 59 0
 195 0026 25E0     		b	.L11
 196              	.L14:
  62:datalogger.c  ****             break;
 197              		.loc 1 62 0
 198 0028 3388     		ldrh	r3, [r6]
 199 002a E000     		lsls	r0, r4, #3
 200 002c 43FA00F0 		asr	r0, r3, r0
 201 0030 3946     		mov	r1, r7
 202 0032 C0B2     		uxtb	r0, r0
 203 0034 FFF7FEFF 		bl	circbuff_add_byte
 204              	.LVL14:
  63:datalogger.c  ****             
 205              		.loc 1 63 0
 206 0038 1CE0     		b	.L11
 207              	.L15:
  66:datalogger.c  ****             break;
 208              		.loc 1 66 0
 209 003a 3368     		ldr	r3, [r6]
 210 003c E000     		lsls	r0, r4, #3
 211 003e 23FA00F0 		lsr	r0, r3, r0
 212 0042 3946     		mov	r1, r7
 213 0044 C0B2     		uxtb	r0, r0
 214 0046 FFF7FEFF 		bl	circbuff_add_byte
 215              	.LVL15:
  67:datalogger.c  ****             
 216              		.loc 1 67 0
 217 004a 13E0     		b	.L11
 218              	.L16:
  70:datalogger.c  ****             break;
 219              		.loc 1 70 0
 220 004c D6F804E0 		ldr	lr, [r6, #4]
 221 0050 E000     		lsls	r0, r4, #3
 222 0052 C0F12001 		rsb	r1, r0, #32
 223 0056 A0F12002 		sub	r2, r0, #32
 224 005a 3368     		ldr	r3, [r6]
 225 005c 23FA00F0 		lsr	r0, r3, r0
 226 0060 0EFA01F1 		lsl	r1, lr, r1
 227 0064 0843     		orrs	r0, r0, r1
 228 0066 2EFA02F2 		lsr	r2, lr, r2
 229 006a 1043     		orrs	r0, r0, r2
 230 006c 3946     		mov	r1, r7
 231 006e C0B2     		uxtb	r0, r0
 232 0070 FFF7FEFF 		bl	circbuff_add_byte
 233              	.LVL16:
 234              	.L11:
  55:datalogger.c  ****         switch(size){
 235              		.loc 1 55 0 discriminator 2
 236 0074 0134     		adds	r4, r4, #1
 237              	.LVL17:
 238              	.L10:
  55:datalogger.c  ****         switch(size){
 239              		.loc 1 55 0 is_stmt 0 discriminator 1
 240 0076 AC42     		cmp	r4, r5
 241 0078 C8DB     		blt	.L17
  78:datalogger.c  **** 
 242              		.loc 1 78 0 is_stmt 1
ARM GAS  C:\Users\pajoh\AppData\Local\Temp\cc5o3qNl.s 			page 7


 243 007a F8BD     		pop	{r3, r4, r5, r6, r7, pc}
 244              		.cfi_endproc
 245              	.LFE4:
 246              		.size	circbuff_add, .-circbuff_add
 247              		.section	.text.get_buffer,"ax",%progbits
 248              		.align	2
 249              		.global	get_buffer
 250              		.thumb
 251              		.thumb_func
 252              		.type	get_buffer, %function
 253              	get_buffer:
 254              	.LFB6:
  86:datalogger.c  ****     }
  87:datalogger.c  **** }
  88:datalogger.c  **** 
  89:datalogger.c  **** uint8 * get_buffer(Log_ts * log){
 255              		.loc 1 89 0
 256              		.cfi_startproc
 257              		@ args = 0, pretend = 0, frame = 0
 258              		@ frame_needed = 0, uses_anonymous_args = 0
 259              		@ link register save eliminated.
 260              	.LVL18:
  90:datalogger.c  ****     return (log->CircBuff.data);
  91:datalogger.c  **** }
 261              		.loc 1 91 0
 262 0000 00F58070 		add	r0, r0, #256
 263              	.LVL19:
 264 0004 7047     		bx	lr
 265              		.cfi_endproc
 266              	.LFE6:
 267              		.size	get_buffer, .-get_buffer
 268 0006 00BF     		.section	.text.get_buffer_size,"ax",%progbits
 269              		.align	2
 270              		.global	get_buffer_size
 271              		.thumb
 272              		.thumb_func
 273              		.type	get_buffer_size, %function
 274              	get_buffer_size:
 275              	.LFB7:
  92:datalogger.c  **** 
  93:datalogger.c  **** int get_buffer_size(Log_ts * log){
 276              		.loc 1 93 0
 277              		.cfi_startproc
 278              		@ args = 0, pretend = 0, frame = 0
 279              		@ frame_needed = 0, uses_anonymous_args = 0
 280              		@ link register save eliminated.
 281              	.LVL20:
  94:datalogger.c  ****     return (int) log->CircBuff.data_index;   
  95:datalogger.c  **** }
 282              		.loc 1 95 0
 283 0000 D0F84001 		ldr	r0, [r0, #320]
 284              	.LVL21:
 285 0004 7047     		bx	lr
 286              		.cfi_endproc
 287              	.LFE7:
 288              		.size	get_buffer_size, .-get_buffer_size
 289 0006 00BF     		.section	.text.var_size,"ax",%progbits
ARM GAS  C:\Users\pajoh\AppData\Local\Temp\cc5o3qNl.s 			page 8


 290              		.align	2
 291              		.global	var_size
 292              		.thumb
 293              		.thumb_func
 294              		.type	var_size, %function
 295              	var_size:
 296              	.LFB8:
  96:datalogger.c  **** 
  97:datalogger.c  **** int var_size(enum types_e type){
 297              		.loc 1 97 0
 298              		.cfi_startproc
 299              		@ args = 0, pretend = 0, frame = 0
 300              		@ frame_needed = 0, uses_anonymous_args = 0
 301              		@ link register save eliminated.
 302              	.LVL22:
  98:datalogger.c  ****     
  99:datalogger.c  ****     int size;
 100:datalogger.c  ****     switch (type){
 303              		.loc 1 100 0
 304 0000 0A28     		cmp	r0, #10
 305 0002 15D8     		bhi	.L22
 306 0004 DFE800F0 		tbb	[pc, r0]
 307              	.L24:
 308 0008 06       		.byte	(.L23-.L24)/2
 309 0009 06       		.byte	(.L23-.L24)/2
 310 000a 16       		.byte	(.L32-.L24)/2
 311 000b 16       		.byte	(.L32-.L24)/2
 312 000c 08       		.byte	(.L26-.L24)/2
 313 000d 0A       		.byte	(.L27-.L24)/2
 314 000e 0C       		.byte	(.L28-.L24)/2
 315 000f 0E       		.byte	(.L29-.L24)/2
 316 0010 10       		.byte	(.L30-.L24)/2
 317 0011 12       		.byte	(.L31-.L24)/2
 318 0012 06       		.byte	(.L23-.L24)/2
 319 0013 00       		.p2align 1
 320              	.L23:
 101:datalogger.c  ****         case UINT8:
 102:datalogger.c  ****             size = 1;
 321              		.loc 1 102 0
 322 0014 0120     		movs	r0, #1
 323              	.LVL23:
 324 0016 7047     		bx	lr
 325              	.LVL24:
 326              	.L26:
 103:datalogger.c  ****         break;
 104:datalogger.c  ****         
 105:datalogger.c  ****         case INT8:
 106:datalogger.c  ****             size = 1;
 107:datalogger.c  ****         break;
 108:datalogger.c  ****         
 109:datalogger.c  ****         case UINT16:
 110:datalogger.c  ****             size = 2;
 111:datalogger.c  ****         break;
 112:datalogger.c  ****         
 113:datalogger.c  ****         case INT16:
 114:datalogger.c  ****             size = 2;
 115:datalogger.c  ****         break;
ARM GAS  C:\Users\pajoh\AppData\Local\Temp\cc5o3qNl.s 			page 9


 116:datalogger.c  ****         
 117:datalogger.c  ****         case UINT32:
 118:datalogger.c  ****             size = 4;
 327              		.loc 1 118 0
 328 0018 0420     		movs	r0, #4
 329              	.LVL25:
 119:datalogger.c  ****         break;
 330              		.loc 1 119 0
 331 001a 7047     		bx	lr
 332              	.LVL26:
 333              	.L27:
 120:datalogger.c  ****         
 121:datalogger.c  ****         case INT32:
 122:datalogger.c  ****             size = 4;
 334              		.loc 1 122 0
 335 001c 0420     		movs	r0, #4
 336              	.LVL27:
 123:datalogger.c  ****         break;
 337              		.loc 1 123 0
 338 001e 7047     		bx	lr
 339              	.LVL28:
 340              	.L28:
 124:datalogger.c  ****         
 125:datalogger.c  ****         case UINT64:
 126:datalogger.c  ****             size = 8;
 341              		.loc 1 126 0
 342 0020 0820     		movs	r0, #8
 343              	.LVL29:
 127:datalogger.c  ****         break;
 344              		.loc 1 127 0
 345 0022 7047     		bx	lr
 346              	.LVL30:
 347              	.L29:
 128:datalogger.c  ****         
 129:datalogger.c  ****         case INT64:
 130:datalogger.c  ****             size = 8;
 348              		.loc 1 130 0
 349 0024 0820     		movs	r0, #8
 350              	.LVL31:
 131:datalogger.c  ****         break;
 351              		.loc 1 131 0
 352 0026 7047     		bx	lr
 353              	.LVL32:
 354              	.L30:
 132:datalogger.c  ****         
 133:datalogger.c  ****         case CHAR:
 134:datalogger.c  ****             size = 1;
 135:datalogger.c  ****         break;
 136:datalogger.c  ****         
 137:datalogger.c  ****         case FLOAT:
 138:datalogger.c  ****             size = 4;
 355              		.loc 1 138 0
 356 0028 0420     		movs	r0, #4
 357              	.LVL33:
 139:datalogger.c  ****         break;
 358              		.loc 1 139 0
 359 002a 7047     		bx	lr
ARM GAS  C:\Users\pajoh\AppData\Local\Temp\cc5o3qNl.s 			page 10


 360              	.LVL34:
 361              	.L31:
 140:datalogger.c  ****         
 141:datalogger.c  ****         case DOUBLE:
 142:datalogger.c  ****             size = 8;
 362              		.loc 1 142 0
 363 002c 0820     		movs	r0, #8
 364              	.LVL35:
 143:datalogger.c  ****         break;
 365              		.loc 1 143 0
 366 002e 7047     		bx	lr
 367              	.LVL36:
 368              	.L22:
 144:datalogger.c  ****     
 145:datalogger.c  ****         default:
 146:datalogger.c  ****             size = 0;
 369              		.loc 1 146 0
 370 0030 0020     		movs	r0, #0
 371              	.LVL37:
 372 0032 7047     		bx	lr
 373              	.LVL38:
 374              	.L32:
 110:datalogger.c  ****         break;
 375              		.loc 1 110 0
 376 0034 0220     		movs	r0, #2
 377              	.LVL39:
 147:datalogger.c  ****       // default statements
 148:datalogger.c  ****     }
 149:datalogger.c  ****     return size;
 150:datalogger.c  **** }
 378              		.loc 1 150 0
 379 0036 7047     		bx	lr
 380              		.cfi_endproc
 381              	.LFE8:
 382              		.size	var_size, .-var_size
 383              		.section	.text.logger,"ax",%progbits
 384              		.align	2
 385              		.global	logger
 386              		.thumb
 387              		.thumb_func
 388              		.type	logger, %function
 389              	logger:
 390              	.LFB3:
  36:datalogger.c  ****     //fetch most recent values of all vars, store in data array
 391              		.loc 1 36 0
 392              		.cfi_startproc
 393              		@ args = 0, pretend = 0, frame = 0
 394              		@ frame_needed = 0, uses_anonymous_args = 0
 395              	.LVL40:
 396 0000 70B5     		push	{r4, r5, r6, lr}
 397              		.cfi_def_cfa_offset 16
 398              		.cfi_offset 4, -16
 399              		.cfi_offset 5, -12
 400              		.cfi_offset 6, -8
 401              		.cfi_offset 14, -4
 402 0002 0546     		mov	r5, r0
 403              	.LVL41:
ARM GAS  C:\Users\pajoh\AppData\Local\Temp\cc5o3qNl.s 			page 11


  44:datalogger.c  ****         //add each logged var to the data array
 404              		.loc 1 44 0
 405 0004 0024     		movs	r4, #0
 406 0006 0DE0     		b	.L34
 407              	.LVL42:
 408              	.L35:
  47:datalogger.c  ****     }
 409              		.loc 1 47 0 discriminator 3
 410 0008 55F83460 		ldr	r6, [r5, r4, lsl #3]
 411 000c 05EBC403 		add	r3, r5, r4, lsl #3
 412 0010 1879     		ldrb	r0, [r3, #4]	@ zero_extendqisi2
 413 0012 FFF7FEFF 		bl	var_size
 414              	.LVL43:
 415 0016 05F58072 		add	r2, r5, #256
 416 001a 0146     		mov	r1, r0
 417 001c 3046     		mov	r0, r6
 418 001e FFF7FEFF 		bl	circbuff_add
 419              	.LVL44:
  44:datalogger.c  ****         //add each logged var to the data array
 420              		.loc 1 44 0 discriminator 3
 421 0022 0134     		adds	r4, r4, #1
 422              	.LVL45:
 423              	.L34:
  44:datalogger.c  ****         //add each logged var to the data array
 424              		.loc 1 44 0 is_stmt 0 discriminator 1
 425 0024 D5F84831 		ldr	r3, [r5, #328]
 426 0028 9C42     		cmp	r4, r3
 427 002a EDDB     		blt	.L35
  51:datalogger.c  **** 
 428              		.loc 1 51 0 is_stmt 1
 429 002c 70BD     		pop	{r4, r5, r6, pc}
 430              		.cfi_endproc
 431              	.LFE3:
 432              		.size	logger, .-logger
 433 002e 00BF     		.section	.text._clear_circbuff,"ax",%progbits
 434              		.align	2
 435              		.global	_clear_circbuff
 436              		.thumb
 437              		.thumb_func
 438              		.type	_clear_circbuff, %function
 439              	_clear_circbuff:
 440              	.LFB9:
 151:datalogger.c  **** 
 152:datalogger.c  **** void _clear_circbuff(CircBuff_ts * circbuff){
 441              		.loc 1 152 0
 442              		.cfi_startproc
 443              		@ args = 0, pretend = 0, frame = 0
 444              		@ frame_needed = 0, uses_anonymous_args = 0
 445              		@ link register save eliminated.
 446              	.LVL46:
 153:datalogger.c  ****     int i;
 154:datalogger.c  ****     for(i = 0; i < circbuff->data_size; i++){
 447              		.loc 1 154 0
 448 0000 0023     		movs	r3, #0
 449 0002 02E0     		b	.L38
 450              	.LVL47:
 451              	.L39:
ARM GAS  C:\Users\pajoh\AppData\Local\Temp\cc5o3qNl.s 			page 12


 155:datalogger.c  ****         circbuff->data[i] = 0;   
 452              		.loc 1 155 0 discriminator 3
 453 0004 0022     		movs	r2, #0
 454 0006 C254     		strb	r2, [r0, r3]
 154:datalogger.c  ****         circbuff->data[i] = 0;   
 455              		.loc 1 154 0 discriminator 3
 456 0008 0133     		adds	r3, r3, #1
 457              	.LVL48:
 458              	.L38:
 154:datalogger.c  ****         circbuff->data[i] = 0;   
 459              		.loc 1 154 0 is_stmt 0 discriminator 1
 460 000a 426C     		ldr	r2, [r0, #68]
 461 000c 9342     		cmp	r3, r2
 462 000e F9DB     		blt	.L39
 156:datalogger.c  ****     }
 157:datalogger.c  ****     circbuff->data_index = 0;
 463              		.loc 1 157 0 is_stmt 1
 464 0010 0023     		movs	r3, #0
 465              	.LVL49:
 466 0012 0364     		str	r3, [r0, #64]
 467 0014 7047     		bx	lr
 468              		.cfi_endproc
 469              	.LFE9:
 470              		.size	_clear_circbuff, .-_clear_circbuff
 471 0016 00BF     		.section	.text.clear_log,"ax",%progbits
 472              		.align	2
 473              		.global	clear_log
 474              		.thumb
 475              		.thumb_func
 476              		.type	clear_log, %function
 477              	clear_log:
 478              	.LFB10:
 158:datalogger.c  **** }
 159:datalogger.c  **** 
 160:datalogger.c  **** void clear_log(Log_ts * log){
 479              		.loc 1 160 0
 480              		.cfi_startproc
 481              		@ args = 0, pretend = 0, frame = 0
 482              		@ frame_needed = 0, uses_anonymous_args = 0
 483              	.LVL50:
 484 0000 08B5     		push	{r3, lr}
 485              		.cfi_def_cfa_offset 8
 486              		.cfi_offset 3, -8
 487              		.cfi_offset 14, -4
 161:datalogger.c  ****     _clear_circbuff(&log->CircBuff);
 488              		.loc 1 161 0
 489 0002 00F58070 		add	r0, r0, #256
 490              	.LVL51:
 491 0006 FFF7FEFF 		bl	_clear_circbuff
 492              	.LVL52:
 493 000a 08BD     		pop	{r3, pc}
 494              		.cfi_endproc
 495              	.LFE10:
 496              		.size	clear_log, .-clear_log
 497              		.text
 498              	.Letext0:
 499              		.file 2 "Generated_Source\\PSoC5/cytypes.h"
ARM GAS  C:\Users\pajoh\AppData\Local\Temp\cc5o3qNl.s 			page 13


 500              		.file 3 "datalogger.h"