ARM GAS  C:\Users\pajoh\AppData\Local\Temp\ccjZLVbA.s 			page 1


   1              		.syntax unified
   2              		.cpu cortex-m3
   3              		.fpu softvfp
   4              		.eabi_attribute 20, 1
   5              		.eabi_attribute 21, 1
   6              		.eabi_attribute 23, 3
   7              		.eabi_attribute 24, 1
   8              		.eabi_attribute 25, 1
   9              		.eabi_attribute 26, 1
  10              		.eabi_attribute 30, 1
  11              		.eabi_attribute 34, 1
  12              		.eabi_attribute 18, 4
  13              		.thumb
  14              		.syntax unified
  15              		.file	"Loop_Interrupt.c"
  16              		.text
  17              	.Ltext0:
  18              		.cfi_sections	.debug_frame
  19              		.section	.text.Loop_Interrupt_Interrupt,"ax",%progbits
  20              		.align	2
  21              		.global	Loop_Interrupt_Interrupt
  22              		.thumb
  23              		.thumb_func
  24              		.type	Loop_Interrupt_Interrupt, %function
  25              	Loop_Interrupt_Interrupt:
  26              	.LFB3:
  27              		.file 1 "Generated_Source\\PSoC5\\Loop_Interrupt.c"
   1:Generated_Source\PSoC5/Loop_Interrupt.c **** /*******************************************************************************
   2:Generated_Source\PSoC5/Loop_Interrupt.c **** * File Name: Loop_Interrupt.c  
   3:Generated_Source\PSoC5/Loop_Interrupt.c **** * Version 1.70
   4:Generated_Source\PSoC5/Loop_Interrupt.c **** *
   5:Generated_Source\PSoC5/Loop_Interrupt.c **** *  Description:
   6:Generated_Source\PSoC5/Loop_Interrupt.c **** *   API for controlling the state of an interrupt.
   7:Generated_Source\PSoC5/Loop_Interrupt.c **** *
   8:Generated_Source\PSoC5/Loop_Interrupt.c **** *
   9:Generated_Source\PSoC5/Loop_Interrupt.c **** *  Note:
  10:Generated_Source\PSoC5/Loop_Interrupt.c **** *
  11:Generated_Source\PSoC5/Loop_Interrupt.c **** ********************************************************************************
  12:Generated_Source\PSoC5/Loop_Interrupt.c **** * Copyright 2008-2015, Cypress Semiconductor Corporation.  All rights reserved.
  13:Generated_Source\PSoC5/Loop_Interrupt.c **** * You may use this file only in accordance with the license, terms, conditions, 
  14:Generated_Source\PSoC5/Loop_Interrupt.c **** * disclaimers, and limitations in the end user license agreement accompanying 
  15:Generated_Source\PSoC5/Loop_Interrupt.c **** * the software package with which this file was provided.
  16:Generated_Source\PSoC5/Loop_Interrupt.c **** *******************************************************************************/
  17:Generated_Source\PSoC5/Loop_Interrupt.c **** 
  18:Generated_Source\PSoC5/Loop_Interrupt.c **** 
  19:Generated_Source\PSoC5/Loop_Interrupt.c **** #include <cydevice_trm.h>
  20:Generated_Source\PSoC5/Loop_Interrupt.c **** #include <CyLib.h>
  21:Generated_Source\PSoC5/Loop_Interrupt.c **** #include <Loop_Interrupt.h>
  22:Generated_Source\PSoC5/Loop_Interrupt.c **** #include "cyapicallbacks.h"
  23:Generated_Source\PSoC5/Loop_Interrupt.c **** 
  24:Generated_Source\PSoC5/Loop_Interrupt.c **** #if !defined(Loop_Interrupt__REMOVED) /* Check for removal by optimization */
  25:Generated_Source\PSoC5/Loop_Interrupt.c **** 
  26:Generated_Source\PSoC5/Loop_Interrupt.c **** /*******************************************************************************
  27:Generated_Source\PSoC5/Loop_Interrupt.c **** *  Place your includes, defines and code here 
  28:Generated_Source\PSoC5/Loop_Interrupt.c **** ********************************************************************************/
  29:Generated_Source\PSoC5/Loop_Interrupt.c **** /* `#START Loop_Interrupt_intc` */
  30:Generated_Source\PSoC5/Loop_Interrupt.c **** extern volatile uint8 main_flag;
ARM GAS  C:\Users\pajoh\AppData\Local\Temp\ccjZLVbA.s 			page 2


  31:Generated_Source\PSoC5/Loop_Interrupt.c **** /* `#END` */
  32:Generated_Source\PSoC5/Loop_Interrupt.c **** 
  33:Generated_Source\PSoC5/Loop_Interrupt.c **** #ifndef CYINT_IRQ_BASE
  34:Generated_Source\PSoC5/Loop_Interrupt.c **** #define CYINT_IRQ_BASE      16
  35:Generated_Source\PSoC5/Loop_Interrupt.c **** #endif /* CYINT_IRQ_BASE */
  36:Generated_Source\PSoC5/Loop_Interrupt.c **** #ifndef CYINT_VECT_TABLE
  37:Generated_Source\PSoC5/Loop_Interrupt.c **** #define CYINT_VECT_TABLE    ((cyisraddress **) CYREG_NVIC_VECT_OFFSET)
  38:Generated_Source\PSoC5/Loop_Interrupt.c **** #endif /* CYINT_VECT_TABLE */
  39:Generated_Source\PSoC5/Loop_Interrupt.c **** 
  40:Generated_Source\PSoC5/Loop_Interrupt.c **** /* Declared in startup, used to set unused interrupts to. */
  41:Generated_Source\PSoC5/Loop_Interrupt.c **** CY_ISR_PROTO(IntDefaultHandler);
  42:Generated_Source\PSoC5/Loop_Interrupt.c **** 
  43:Generated_Source\PSoC5/Loop_Interrupt.c **** 
  44:Generated_Source\PSoC5/Loop_Interrupt.c **** /*******************************************************************************
  45:Generated_Source\PSoC5/Loop_Interrupt.c **** * Function Name: Loop_Interrupt_Start
  46:Generated_Source\PSoC5/Loop_Interrupt.c **** ********************************************************************************
  47:Generated_Source\PSoC5/Loop_Interrupt.c **** *
  48:Generated_Source\PSoC5/Loop_Interrupt.c **** * Summary:
  49:Generated_Source\PSoC5/Loop_Interrupt.c **** *  Set up the interrupt and enable it. This function disables the interrupt, 
  50:Generated_Source\PSoC5/Loop_Interrupt.c **** *  sets the default interrupt vector, sets the priority from the value in the
  51:Generated_Source\PSoC5/Loop_Interrupt.c **** *  Design Wide Resources Interrupt Editor, then enables the interrupt to the 
  52:Generated_Source\PSoC5/Loop_Interrupt.c **** *  interrupt controller.
  53:Generated_Source\PSoC5/Loop_Interrupt.c **** *
  54:Generated_Source\PSoC5/Loop_Interrupt.c **** * Parameters:  
  55:Generated_Source\PSoC5/Loop_Interrupt.c **** *   None
  56:Generated_Source\PSoC5/Loop_Interrupt.c **** *
  57:Generated_Source\PSoC5/Loop_Interrupt.c **** * Return:
  58:Generated_Source\PSoC5/Loop_Interrupt.c **** *   None
  59:Generated_Source\PSoC5/Loop_Interrupt.c **** *
  60:Generated_Source\PSoC5/Loop_Interrupt.c **** *******************************************************************************/
  61:Generated_Source\PSoC5/Loop_Interrupt.c **** void Loop_Interrupt_Start(void)
  62:Generated_Source\PSoC5/Loop_Interrupt.c **** {
  63:Generated_Source\PSoC5/Loop_Interrupt.c ****     /* For all we know the interrupt is active. */
  64:Generated_Source\PSoC5/Loop_Interrupt.c ****     Loop_Interrupt_Disable();
  65:Generated_Source\PSoC5/Loop_Interrupt.c **** 
  66:Generated_Source\PSoC5/Loop_Interrupt.c ****     /* Set the ISR to point to the Loop_Interrupt Interrupt. */
  67:Generated_Source\PSoC5/Loop_Interrupt.c ****     Loop_Interrupt_SetVector(&Loop_Interrupt_Interrupt);
  68:Generated_Source\PSoC5/Loop_Interrupt.c **** 
  69:Generated_Source\PSoC5/Loop_Interrupt.c ****     /* Set the priority. */
  70:Generated_Source\PSoC5/Loop_Interrupt.c ****     Loop_Interrupt_SetPriority((uint8)Loop_Interrupt_INTC_PRIOR_NUMBER);
  71:Generated_Source\PSoC5/Loop_Interrupt.c **** 
  72:Generated_Source\PSoC5/Loop_Interrupt.c ****     /* Enable it. */
  73:Generated_Source\PSoC5/Loop_Interrupt.c ****     Loop_Interrupt_Enable();
  74:Generated_Source\PSoC5/Loop_Interrupt.c **** }
  75:Generated_Source\PSoC5/Loop_Interrupt.c **** 
  76:Generated_Source\PSoC5/Loop_Interrupt.c **** 
  77:Generated_Source\PSoC5/Loop_Interrupt.c **** /*******************************************************************************
  78:Generated_Source\PSoC5/Loop_Interrupt.c **** * Function Name: Loop_Interrupt_StartEx
  79:Generated_Source\PSoC5/Loop_Interrupt.c **** ********************************************************************************
  80:Generated_Source\PSoC5/Loop_Interrupt.c **** *
  81:Generated_Source\PSoC5/Loop_Interrupt.c **** * Summary:
  82:Generated_Source\PSoC5/Loop_Interrupt.c **** *  Sets up the interrupt and enables it. This function disables the interrupt,
  83:Generated_Source\PSoC5/Loop_Interrupt.c **** *  sets the interrupt vector based on the address passed in, sets the priority 
  84:Generated_Source\PSoC5/Loop_Interrupt.c **** *  from the value in the Design Wide Resources Interrupt Editor, then enables 
  85:Generated_Source\PSoC5/Loop_Interrupt.c **** *  the interrupt to the interrupt controller.
  86:Generated_Source\PSoC5/Loop_Interrupt.c **** *  
  87:Generated_Source\PSoC5/Loop_Interrupt.c **** *  When defining ISR functions, the CY_ISR and CY_ISR_PROTO macros should be 
ARM GAS  C:\Users\pajoh\AppData\Local\Temp\ccjZLVbA.s 			page 3


  88:Generated_Source\PSoC5/Loop_Interrupt.c **** *  used to provide consistent definition across compilers:
  89:Generated_Source\PSoC5/Loop_Interrupt.c **** *  
  90:Generated_Source\PSoC5/Loop_Interrupt.c **** *  Function definition example:
  91:Generated_Source\PSoC5/Loop_Interrupt.c **** *   CY_ISR(MyISR)
  92:Generated_Source\PSoC5/Loop_Interrupt.c **** *   {
  93:Generated_Source\PSoC5/Loop_Interrupt.c **** *   }
  94:Generated_Source\PSoC5/Loop_Interrupt.c **** *   Function prototype example:
  95:Generated_Source\PSoC5/Loop_Interrupt.c **** *   CY_ISR_PROTO(MyISR);
  96:Generated_Source\PSoC5/Loop_Interrupt.c **** *
  97:Generated_Source\PSoC5/Loop_Interrupt.c **** * Parameters:  
  98:Generated_Source\PSoC5/Loop_Interrupt.c **** *   address: Address of the ISR to set in the interrupt vector table.
  99:Generated_Source\PSoC5/Loop_Interrupt.c **** *
 100:Generated_Source\PSoC5/Loop_Interrupt.c **** * Return:
 101:Generated_Source\PSoC5/Loop_Interrupt.c **** *   None
 102:Generated_Source\PSoC5/Loop_Interrupt.c **** *
 103:Generated_Source\PSoC5/Loop_Interrupt.c **** *******************************************************************************/
 104:Generated_Source\PSoC5/Loop_Interrupt.c **** void Loop_Interrupt_StartEx(cyisraddress address)
 105:Generated_Source\PSoC5/Loop_Interrupt.c **** {
 106:Generated_Source\PSoC5/Loop_Interrupt.c ****     /* For all we know the interrupt is active. */
 107:Generated_Source\PSoC5/Loop_Interrupt.c ****     Loop_Interrupt_Disable();
 108:Generated_Source\PSoC5/Loop_Interrupt.c **** 
 109:Generated_Source\PSoC5/Loop_Interrupt.c ****     /* Set the ISR to point to the Loop_Interrupt Interrupt. */
 110:Generated_Source\PSoC5/Loop_Interrupt.c ****     Loop_Interrupt_SetVector(address);
 111:Generated_Source\PSoC5/Loop_Interrupt.c **** 
 112:Generated_Source\PSoC5/Loop_Interrupt.c ****     /* Set the priority. */
 113:Generated_Source\PSoC5/Loop_Interrupt.c ****     Loop_Interrupt_SetPriority((uint8)Loop_Interrupt_INTC_PRIOR_NUMBER);
 114:Generated_Source\PSoC5/Loop_Interrupt.c **** 
 115:Generated_Source\PSoC5/Loop_Interrupt.c ****     /* Enable it. */
 116:Generated_Source\PSoC5/Loop_Interrupt.c ****     Loop_Interrupt_Enable();
 117:Generated_Source\PSoC5/Loop_Interrupt.c **** }
 118:Generated_Source\PSoC5/Loop_Interrupt.c **** 
 119:Generated_Source\PSoC5/Loop_Interrupt.c **** 
 120:Generated_Source\PSoC5/Loop_Interrupt.c **** /*******************************************************************************
 121:Generated_Source\PSoC5/Loop_Interrupt.c **** * Function Name: Loop_Interrupt_Stop
 122:Generated_Source\PSoC5/Loop_Interrupt.c **** ********************************************************************************
 123:Generated_Source\PSoC5/Loop_Interrupt.c **** *
 124:Generated_Source\PSoC5/Loop_Interrupt.c **** * Summary:
 125:Generated_Source\PSoC5/Loop_Interrupt.c **** *   Disables and removes the interrupt.
 126:Generated_Source\PSoC5/Loop_Interrupt.c **** *
 127:Generated_Source\PSoC5/Loop_Interrupt.c **** * Parameters:  
 128:Generated_Source\PSoC5/Loop_Interrupt.c **** *   None
 129:Generated_Source\PSoC5/Loop_Interrupt.c **** *
 130:Generated_Source\PSoC5/Loop_Interrupt.c **** * Return:
 131:Generated_Source\PSoC5/Loop_Interrupt.c **** *   None
 132:Generated_Source\PSoC5/Loop_Interrupt.c **** *
 133:Generated_Source\PSoC5/Loop_Interrupt.c **** *******************************************************************************/
 134:Generated_Source\PSoC5/Loop_Interrupt.c **** void Loop_Interrupt_Stop(void)
 135:Generated_Source\PSoC5/Loop_Interrupt.c **** {
 136:Generated_Source\PSoC5/Loop_Interrupt.c ****     /* Disable this interrupt. */
 137:Generated_Source\PSoC5/Loop_Interrupt.c ****     Loop_Interrupt_Disable();
 138:Generated_Source\PSoC5/Loop_Interrupt.c **** 
 139:Generated_Source\PSoC5/Loop_Interrupt.c ****     /* Set the ISR to point to the passive one. */
 140:Generated_Source\PSoC5/Loop_Interrupt.c ****     Loop_Interrupt_SetVector(&IntDefaultHandler);
 141:Generated_Source\PSoC5/Loop_Interrupt.c **** }
 142:Generated_Source\PSoC5/Loop_Interrupt.c **** 
 143:Generated_Source\PSoC5/Loop_Interrupt.c **** 
 144:Generated_Source\PSoC5/Loop_Interrupt.c **** /*******************************************************************************
ARM GAS  C:\Users\pajoh\AppData\Local\Temp\ccjZLVbA.s 			page 4


 145:Generated_Source\PSoC5/Loop_Interrupt.c **** * Function Name: Loop_Interrupt_Interrupt
 146:Generated_Source\PSoC5/Loop_Interrupt.c **** ********************************************************************************
 147:Generated_Source\PSoC5/Loop_Interrupt.c **** *
 148:Generated_Source\PSoC5/Loop_Interrupt.c **** * Summary:
 149:Generated_Source\PSoC5/Loop_Interrupt.c **** *   The default Interrupt Service Routine for Loop_Interrupt.
 150:Generated_Source\PSoC5/Loop_Interrupt.c **** *
 151:Generated_Source\PSoC5/Loop_Interrupt.c **** *   Add custom code between the coments to keep the next version of this file
 152:Generated_Source\PSoC5/Loop_Interrupt.c **** *   from over writting your code.
 153:Generated_Source\PSoC5/Loop_Interrupt.c **** *
 154:Generated_Source\PSoC5/Loop_Interrupt.c **** * Parameters:  
 155:Generated_Source\PSoC5/Loop_Interrupt.c **** *
 156:Generated_Source\PSoC5/Loop_Interrupt.c **** * Return:
 157:Generated_Source\PSoC5/Loop_Interrupt.c **** *   None
 158:Generated_Source\PSoC5/Loop_Interrupt.c **** *
 159:Generated_Source\PSoC5/Loop_Interrupt.c **** *******************************************************************************/
 160:Generated_Source\PSoC5/Loop_Interrupt.c **** CY_ISR(Loop_Interrupt_Interrupt)
 161:Generated_Source\PSoC5/Loop_Interrupt.c **** {
  28              		.loc 1 161 0
  29              		.cfi_startproc
  30              		@ args = 0, pretend = 0, frame = 0
  31              		@ frame_needed = 0, uses_anonymous_args = 0
  32              		@ link register save eliminated.
 162:Generated_Source\PSoC5/Loop_Interrupt.c ****     #ifdef Loop_Interrupt_INTERRUPT_INTERRUPT_CALLBACK
 163:Generated_Source\PSoC5/Loop_Interrupt.c ****         Loop_Interrupt_Interrupt_InterruptCallback();
 164:Generated_Source\PSoC5/Loop_Interrupt.c ****     #endif /* Loop_Interrupt_INTERRUPT_INTERRUPT_CALLBACK */ 
 165:Generated_Source\PSoC5/Loop_Interrupt.c **** 
 166:Generated_Source\PSoC5/Loop_Interrupt.c ****     /*  Place your Interrupt code here. */
 167:Generated_Source\PSoC5/Loop_Interrupt.c ****     /* `#START Loop_Interrupt_Interrupt` */
 168:Generated_Source\PSoC5/Loop_Interrupt.c ****     main_flag = 1;
  33              		.loc 1 168 0
  34 0000 0122     		movs	r2, #1
  35 0002 014B     		ldr	r3, .L2
  36 0004 1A70     		strb	r2, [r3]
  37 0006 7047     		bx	lr
  38              	.L3:
  39              		.align	2
  40              	.L2:
  41 0008 00000000 		.word	main_flag
  42              		.cfi_endproc
  43              	.LFE3:
  44              		.size	Loop_Interrupt_Interrupt, .-Loop_Interrupt_Interrupt
  45              		.section	.text.Loop_Interrupt_SetVector,"ax",%progbits
  46              		.align	2
  47              		.global	Loop_Interrupt_SetVector
  48              		.thumb
  49              		.thumb_func
  50              		.type	Loop_Interrupt_SetVector, %function
  51              	Loop_Interrupt_SetVector:
  52              	.LFB4:
 169:Generated_Source\PSoC5/Loop_Interrupt.c ****     /* `#END` */
 170:Generated_Source\PSoC5/Loop_Interrupt.c **** }
 171:Generated_Source\PSoC5/Loop_Interrupt.c **** 
 172:Generated_Source\PSoC5/Loop_Interrupt.c **** 
 173:Generated_Source\PSoC5/Loop_Interrupt.c **** /*******************************************************************************
 174:Generated_Source\PSoC5/Loop_Interrupt.c **** * Function Name: Loop_Interrupt_SetVector
 175:Generated_Source\PSoC5/Loop_Interrupt.c **** ********************************************************************************
 176:Generated_Source\PSoC5/Loop_Interrupt.c **** *
ARM GAS  C:\Users\pajoh\AppData\Local\Temp\ccjZLVbA.s 			page 5


 177:Generated_Source\PSoC5/Loop_Interrupt.c **** * Summary:
 178:Generated_Source\PSoC5/Loop_Interrupt.c **** *   Change the ISR vector for the Interrupt. Note calling Loop_Interrupt_Start
 179:Generated_Source\PSoC5/Loop_Interrupt.c **** *   will override any effect this method would have had. To set the vector 
 180:Generated_Source\PSoC5/Loop_Interrupt.c **** *   before the component has been started use Loop_Interrupt_StartEx instead.
 181:Generated_Source\PSoC5/Loop_Interrupt.c **** * 
 182:Generated_Source\PSoC5/Loop_Interrupt.c **** *   When defining ISR functions, the CY_ISR and CY_ISR_PROTO macros should be 
 183:Generated_Source\PSoC5/Loop_Interrupt.c **** *   used to provide consistent definition across compilers:
 184:Generated_Source\PSoC5/Loop_Interrupt.c **** *
 185:Generated_Source\PSoC5/Loop_Interrupt.c **** *   Function definition example:
 186:Generated_Source\PSoC5/Loop_Interrupt.c **** *   CY_ISR(MyISR)
 187:Generated_Source\PSoC5/Loop_Interrupt.c **** *   {
 188:Generated_Source\PSoC5/Loop_Interrupt.c **** *   }
 189:Generated_Source\PSoC5/Loop_Interrupt.c **** *
 190:Generated_Source\PSoC5/Loop_Interrupt.c **** *   Function prototype example:
 191:Generated_Source\PSoC5/Loop_Interrupt.c **** *     CY_ISR_PROTO(MyISR);
 192:Generated_Source\PSoC5/Loop_Interrupt.c **** *
 193:Generated_Source\PSoC5/Loop_Interrupt.c **** * Parameters:
 194:Generated_Source\PSoC5/Loop_Interrupt.c **** *   address: Address of the ISR to set in the interrupt vector table.
 195:Generated_Source\PSoC5/Loop_Interrupt.c **** *
 196:Generated_Source\PSoC5/Loop_Interrupt.c **** * Return:
 197:Generated_Source\PSoC5/Loop_Interrupt.c **** *   None
 198:Generated_Source\PSoC5/Loop_Interrupt.c **** *
 199:Generated_Source\PSoC5/Loop_Interrupt.c **** *******************************************************************************/
 200:Generated_Source\PSoC5/Loop_Interrupt.c **** void Loop_Interrupt_SetVector(cyisraddress address)
 201:Generated_Source\PSoC5/Loop_Interrupt.c **** {
  53              		.loc 1 201 0
  54              		.cfi_startproc
  55              		@ args = 0, pretend = 0, frame = 0
  56              		@ frame_needed = 0, uses_anonymous_args = 0
  57              		@ link register save eliminated.
  58              	.LVL0:
 202:Generated_Source\PSoC5/Loop_Interrupt.c ****     cyisraddress * ramVectorTable;
 203:Generated_Source\PSoC5/Loop_Interrupt.c **** 
 204:Generated_Source\PSoC5/Loop_Interrupt.c ****     ramVectorTable = (cyisraddress *) *CYINT_VECT_TABLE;
  59              		.loc 1 204 0
  60 0000 014B     		ldr	r3, .L5
  61 0002 1B68     		ldr	r3, [r3]
  62              	.LVL1:
 205:Generated_Source\PSoC5/Loop_Interrupt.c **** 
 206:Generated_Source\PSoC5/Loop_Interrupt.c ****     ramVectorTable[CYINT_IRQ_BASE + (uint32)Loop_Interrupt__INTC_NUMBER] = address;
  63              		.loc 1 206 0
  64 0004 1864     		str	r0, [r3, #64]
  65 0006 7047     		bx	lr
  66              	.L6:
  67              		.align	2
  68              	.L5:
  69 0008 08ED00E0 		.word	-536810232
  70              		.cfi_endproc
  71              	.LFE4:
  72              		.size	Loop_Interrupt_SetVector, .-Loop_Interrupt_SetVector
  73              		.section	.text.Loop_Interrupt_GetVector,"ax",%progbits
  74              		.align	2
  75              		.global	Loop_Interrupt_GetVector
  76              		.thumb
  77              		.thumb_func
  78              		.type	Loop_Interrupt_GetVector, %function
  79              	Loop_Interrupt_GetVector:
ARM GAS  C:\Users\pajoh\AppData\Local\Temp\ccjZLVbA.s 			page 6


  80              	.LFB5:
 207:Generated_Source\PSoC5/Loop_Interrupt.c **** }
 208:Generated_Source\PSoC5/Loop_Interrupt.c **** 
 209:Generated_Source\PSoC5/Loop_Interrupt.c **** 
 210:Generated_Source\PSoC5/Loop_Interrupt.c **** /*******************************************************************************
 211:Generated_Source\PSoC5/Loop_Interrupt.c **** * Function Name: Loop_Interrupt_GetVector
 212:Generated_Source\PSoC5/Loop_Interrupt.c **** ********************************************************************************
 213:Generated_Source\PSoC5/Loop_Interrupt.c **** *
 214:Generated_Source\PSoC5/Loop_Interrupt.c **** * Summary:
 215:Generated_Source\PSoC5/Loop_Interrupt.c **** *   Gets the "address" of the current ISR vector for the Interrupt.
 216:Generated_Source\PSoC5/Loop_Interrupt.c **** *
 217:Generated_Source\PSoC5/Loop_Interrupt.c **** * Parameters:
 218:Generated_Source\PSoC5/Loop_Interrupt.c **** *   None
 219:Generated_Source\PSoC5/Loop_Interrupt.c **** *
 220:Generated_Source\PSoC5/Loop_Interrupt.c **** * Return:
 221:Generated_Source\PSoC5/Loop_Interrupt.c **** *   Address of the ISR in the interrupt vector table.
 222:Generated_Source\PSoC5/Loop_Interrupt.c **** *
 223:Generated_Source\PSoC5/Loop_Interrupt.c **** *******************************************************************************/
 224:Generated_Source\PSoC5/Loop_Interrupt.c **** cyisraddress Loop_Interrupt_GetVector(void)
 225:Generated_Source\PSoC5/Loop_Interrupt.c **** {
  81              		.loc 1 225 0
  82              		.cfi_startproc
  83              		@ args = 0, pretend = 0, frame = 0
  84              		@ frame_needed = 0, uses_anonymous_args = 0
  85              		@ link register save eliminated.
 226:Generated_Source\PSoC5/Loop_Interrupt.c ****     cyisraddress * ramVectorTable;
 227:Generated_Source\PSoC5/Loop_Interrupt.c **** 
 228:Generated_Source\PSoC5/Loop_Interrupt.c ****     ramVectorTable = (cyisraddress *) *CYINT_VECT_TABLE;
  86              		.loc 1 228 0
  87 0000 014B     		ldr	r3, .L8
  88 0002 1B68     		ldr	r3, [r3]
  89              	.LVL2:
 229:Generated_Source\PSoC5/Loop_Interrupt.c **** 
 230:Generated_Source\PSoC5/Loop_Interrupt.c ****     return ramVectorTable[CYINT_IRQ_BASE + (uint32)Loop_Interrupt__INTC_NUMBER];
 231:Generated_Source\PSoC5/Loop_Interrupt.c **** }
  90              		.loc 1 231 0
  91 0004 186C     		ldr	r0, [r3, #64]
  92 0006 7047     		bx	lr
  93              	.L9:
  94              		.align	2
  95              	.L8:
  96 0008 08ED00E0 		.word	-536810232
  97              		.cfi_endproc
  98              	.LFE5:
  99              		.size	Loop_Interrupt_GetVector, .-Loop_Interrupt_GetVector
 100              		.section	.text.Loop_Interrupt_SetPriority,"ax",%progbits
 101              		.align	2
 102              		.global	Loop_Interrupt_SetPriority
 103              		.thumb
 104              		.thumb_func
 105              		.type	Loop_Interrupt_SetPriority, %function
 106              	Loop_Interrupt_SetPriority:
 107              	.LFB6:
 232:Generated_Source\PSoC5/Loop_Interrupt.c **** 
 233:Generated_Source\PSoC5/Loop_Interrupt.c **** 
 234:Generated_Source\PSoC5/Loop_Interrupt.c **** /*******************************************************************************
 235:Generated_Source\PSoC5/Loop_Interrupt.c **** * Function Name: Loop_Interrupt_SetPriority
ARM GAS  C:\Users\pajoh\AppData\Local\Temp\ccjZLVbA.s 			page 7


 236:Generated_Source\PSoC5/Loop_Interrupt.c **** ********************************************************************************
 237:Generated_Source\PSoC5/Loop_Interrupt.c **** *
 238:Generated_Source\PSoC5/Loop_Interrupt.c **** * Summary:
 239:Generated_Source\PSoC5/Loop_Interrupt.c **** *   Sets the Priority of the Interrupt. 
 240:Generated_Source\PSoC5/Loop_Interrupt.c **** *
 241:Generated_Source\PSoC5/Loop_Interrupt.c **** *   Note calling Loop_Interrupt_Start or Loop_Interrupt_StartEx will 
 242:Generated_Source\PSoC5/Loop_Interrupt.c **** *   override any effect this API would have had. This API should only be called
 243:Generated_Source\PSoC5/Loop_Interrupt.c **** *   after Loop_Interrupt_Start or Loop_Interrupt_StartEx has been called. 
 244:Generated_Source\PSoC5/Loop_Interrupt.c **** *   To set the initial priority for the component, use the Design-Wide Resources
 245:Generated_Source\PSoC5/Loop_Interrupt.c **** *   Interrupt Editor.
 246:Generated_Source\PSoC5/Loop_Interrupt.c **** *
 247:Generated_Source\PSoC5/Loop_Interrupt.c **** *   Note This API has no effect on Non-maskable interrupt NMI).
 248:Generated_Source\PSoC5/Loop_Interrupt.c **** *
 249:Generated_Source\PSoC5/Loop_Interrupt.c **** * Parameters:
 250:Generated_Source\PSoC5/Loop_Interrupt.c **** *   priority: Priority of the interrupt, 0 being the highest priority
 251:Generated_Source\PSoC5/Loop_Interrupt.c **** *             PSoC 3 and PSoC 5LP: Priority is from 0 to 7.
 252:Generated_Source\PSoC5/Loop_Interrupt.c **** *             PSoC 4: Priority is from 0 to 3.
 253:Generated_Source\PSoC5/Loop_Interrupt.c **** *
 254:Generated_Source\PSoC5/Loop_Interrupt.c **** * Return:
 255:Generated_Source\PSoC5/Loop_Interrupt.c **** *   None
 256:Generated_Source\PSoC5/Loop_Interrupt.c **** *
 257:Generated_Source\PSoC5/Loop_Interrupt.c **** *******************************************************************************/
 258:Generated_Source\PSoC5/Loop_Interrupt.c **** void Loop_Interrupt_SetPriority(uint8 priority)
 259:Generated_Source\PSoC5/Loop_Interrupt.c **** {
 108              		.loc 1 259 0
 109              		.cfi_startproc
 110              		@ args = 0, pretend = 0, frame = 0
 111              		@ frame_needed = 0, uses_anonymous_args = 0
 112              		@ link register save eliminated.
 113              	.LVL3:
 260:Generated_Source\PSoC5/Loop_Interrupt.c ****     *Loop_Interrupt_INTC_PRIOR = priority << 5;
 114              		.loc 1 260 0
 115 0000 4001     		lsls	r0, r0, #5
 116              	.LVL4:
 117 0002 C0B2     		uxtb	r0, r0
 118 0004 014B     		ldr	r3, .L11
 119 0006 1870     		strb	r0, [r3]
 120 0008 7047     		bx	lr
 121              	.L12:
 122 000a 00BF     		.align	2
 123              	.L11:
 124 000c 00E400E0 		.word	-536812544
 125              		.cfi_endproc
 126              	.LFE6:
 127              		.size	Loop_Interrupt_SetPriority, .-Loop_Interrupt_SetPriority
 128              		.section	.text.Loop_Interrupt_GetPriority,"ax",%progbits
 129              		.align	2
 130              		.global	Loop_Interrupt_GetPriority
 131              		.thumb
 132              		.thumb_func
 133              		.type	Loop_Interrupt_GetPriority, %function
 134              	Loop_Interrupt_GetPriority:
 135              	.LFB7:
 261:Generated_Source\PSoC5/Loop_Interrupt.c **** }
 262:Generated_Source\PSoC5/Loop_Interrupt.c **** 
 263:Generated_Source\PSoC5/Loop_Interrupt.c **** 
 264:Generated_Source\PSoC5/Loop_Interrupt.c **** /*******************************************************************************
ARM GAS  C:\Users\pajoh\AppData\Local\Temp\ccjZLVbA.s 			page 8


 265:Generated_Source\PSoC5/Loop_Interrupt.c **** * Function Name: Loop_Interrupt_GetPriority
 266:Generated_Source\PSoC5/Loop_Interrupt.c **** ********************************************************************************
 267:Generated_Source\PSoC5/Loop_Interrupt.c **** *
 268:Generated_Source\PSoC5/Loop_Interrupt.c **** * Summary:
 269:Generated_Source\PSoC5/Loop_Interrupt.c **** *   Gets the Priority of the Interrupt.
 270:Generated_Source\PSoC5/Loop_Interrupt.c **** *
 271:Generated_Source\PSoC5/Loop_Interrupt.c **** * Parameters:
 272:Generated_Source\PSoC5/Loop_Interrupt.c **** *   None
 273:Generated_Source\PSoC5/Loop_Interrupt.c **** *
 274:Generated_Source\PSoC5/Loop_Interrupt.c **** * Return:
 275:Generated_Source\PSoC5/Loop_Interrupt.c **** *   Priority of the interrupt, 0 being the highest priority
 276:Generated_Source\PSoC5/Loop_Interrupt.c **** *    PSoC 3 and PSoC 5LP: Priority is from 0 to 7.
 277:Generated_Source\PSoC5/Loop_Interrupt.c **** *    PSoC 4: Priority is from 0 to 3.
 278:Generated_Source\PSoC5/Loop_Interrupt.c **** *
 279:Generated_Source\PSoC5/Loop_Interrupt.c **** *******************************************************************************/
 280:Generated_Source\PSoC5/Loop_Interrupt.c **** uint8 Loop_Interrupt_GetPriority(void)
 281:Generated_Source\PSoC5/Loop_Interrupt.c **** {
 136              		.loc 1 281 0
 137              		.cfi_startproc
 138              		@ args = 0, pretend = 0, frame = 0
 139              		@ frame_needed = 0, uses_anonymous_args = 0
 140              		@ link register save eliminated.
 282:Generated_Source\PSoC5/Loop_Interrupt.c ****     uint8 priority;
 283:Generated_Source\PSoC5/Loop_Interrupt.c **** 
 284:Generated_Source\PSoC5/Loop_Interrupt.c **** 
 285:Generated_Source\PSoC5/Loop_Interrupt.c ****     priority = *Loop_Interrupt_INTC_PRIOR >> 5;
 141              		.loc 1 285 0
 142 0000 014B     		ldr	r3, .L14
 143 0002 1878     		ldrb	r0, [r3]	@ zero_extendqisi2
 144              	.LVL5:
 286:Generated_Source\PSoC5/Loop_Interrupt.c **** 
 287:Generated_Source\PSoC5/Loop_Interrupt.c ****     return priority;
 288:Generated_Source\PSoC5/Loop_Interrupt.c **** }
 145              		.loc 1 288 0
 146 0004 4009     		lsrs	r0, r0, #5
 147              	.LVL6:
 148 0006 7047     		bx	lr
 149              	.L15:
 150              		.align	2
 151              	.L14:
 152 0008 00E400E0 		.word	-536812544
 153              		.cfi_endproc
 154              	.LFE7:
 155              		.size	Loop_Interrupt_GetPriority, .-Loop_Interrupt_GetPriority
 156              		.section	.text.Loop_Interrupt_Enable,"ax",%progbits
 157              		.align	2
 158              		.global	Loop_Interrupt_Enable
 159              		.thumb
 160              		.thumb_func
 161              		.type	Loop_Interrupt_Enable, %function
 162              	Loop_Interrupt_Enable:
 163              	.LFB8:
 289:Generated_Source\PSoC5/Loop_Interrupt.c **** 
 290:Generated_Source\PSoC5/Loop_Interrupt.c **** 
 291:Generated_Source\PSoC5/Loop_Interrupt.c **** /*******************************************************************************
 292:Generated_Source\PSoC5/Loop_Interrupt.c **** * Function Name: Loop_Interrupt_Enable
 293:Generated_Source\PSoC5/Loop_Interrupt.c **** ********************************************************************************
ARM GAS  C:\Users\pajoh\AppData\Local\Temp\ccjZLVbA.s 			page 9


 294:Generated_Source\PSoC5/Loop_Interrupt.c **** *
 295:Generated_Source\PSoC5/Loop_Interrupt.c **** * Summary:
 296:Generated_Source\PSoC5/Loop_Interrupt.c **** *   Enables the interrupt to the interrupt controller. Do not call this function
 297:Generated_Source\PSoC5/Loop_Interrupt.c **** *   unless ISR_Start() has been called or the functionality of the ISR_Start() 
 298:Generated_Source\PSoC5/Loop_Interrupt.c **** *   function, which sets the vector and the priority, has been called.
 299:Generated_Source\PSoC5/Loop_Interrupt.c **** *
 300:Generated_Source\PSoC5/Loop_Interrupt.c **** * Parameters:
 301:Generated_Source\PSoC5/Loop_Interrupt.c **** *   None
 302:Generated_Source\PSoC5/Loop_Interrupt.c **** *
 303:Generated_Source\PSoC5/Loop_Interrupt.c **** * Return:
 304:Generated_Source\PSoC5/Loop_Interrupt.c **** *   None
 305:Generated_Source\PSoC5/Loop_Interrupt.c **** *
 306:Generated_Source\PSoC5/Loop_Interrupt.c **** *******************************************************************************/
 307:Generated_Source\PSoC5/Loop_Interrupt.c **** void Loop_Interrupt_Enable(void)
 308:Generated_Source\PSoC5/Loop_Interrupt.c **** {
 164              		.loc 1 308 0
 165              		.cfi_startproc
 166              		@ args = 0, pretend = 0, frame = 0
 167              		@ frame_needed = 0, uses_anonymous_args = 0
 168              		@ link register save eliminated.
 309:Generated_Source\PSoC5/Loop_Interrupt.c ****     /* Enable the general interrupt. */
 310:Generated_Source\PSoC5/Loop_Interrupt.c ****     *Loop_Interrupt_INTC_SET_EN = Loop_Interrupt__INTC_MASK;
 169              		.loc 1 310 0
 170 0000 0122     		movs	r2, #1
 171 0002 014B     		ldr	r3, .L17
 172 0004 1A60     		str	r2, [r3]
 173 0006 7047     		bx	lr
 174              	.L18:
 175              		.align	2
 176              	.L17:
 177 0008 00E100E0 		.word	-536813312
 178              		.cfi_endproc
 179              	.LFE8:
 180              		.size	Loop_Interrupt_Enable, .-Loop_Interrupt_Enable
 181              		.section	.text.Loop_Interrupt_GetState,"ax",%progbits
 182              		.align	2
 183              		.global	Loop_Interrupt_GetState
 184              		.thumb
 185              		.thumb_func
 186              		.type	Loop_Interrupt_GetState, %function
 187              	Loop_Interrupt_GetState:
 188              	.LFB9:
 311:Generated_Source\PSoC5/Loop_Interrupt.c **** }
 312:Generated_Source\PSoC5/Loop_Interrupt.c **** 
 313:Generated_Source\PSoC5/Loop_Interrupt.c **** 
 314:Generated_Source\PSoC5/Loop_Interrupt.c **** /*******************************************************************************
 315:Generated_Source\PSoC5/Loop_Interrupt.c **** * Function Name: Loop_Interrupt_GetState
 316:Generated_Source\PSoC5/Loop_Interrupt.c **** ********************************************************************************
 317:Generated_Source\PSoC5/Loop_Interrupt.c **** *
 318:Generated_Source\PSoC5/Loop_Interrupt.c **** * Summary:
 319:Generated_Source\PSoC5/Loop_Interrupt.c **** *   Gets the state (enabled, disabled) of the Interrupt.
 320:Generated_Source\PSoC5/Loop_Interrupt.c **** *
 321:Generated_Source\PSoC5/Loop_Interrupt.c **** * Parameters:
 322:Generated_Source\PSoC5/Loop_Interrupt.c **** *   None
 323:Generated_Source\PSoC5/Loop_Interrupt.c **** *
 324:Generated_Source\PSoC5/Loop_Interrupt.c **** * Return:
 325:Generated_Source\PSoC5/Loop_Interrupt.c **** *   1 if enabled, 0 if disabled.
ARM GAS  C:\Users\pajoh\AppData\Local\Temp\ccjZLVbA.s 			page 10


 326:Generated_Source\PSoC5/Loop_Interrupt.c **** *
 327:Generated_Source\PSoC5/Loop_Interrupt.c **** *******************************************************************************/
 328:Generated_Source\PSoC5/Loop_Interrupt.c **** uint8 Loop_Interrupt_GetState(void)
 329:Generated_Source\PSoC5/Loop_Interrupt.c **** {
 189              		.loc 1 329 0
 190              		.cfi_startproc
 191              		@ args = 0, pretend = 0, frame = 0
 192              		@ frame_needed = 0, uses_anonymous_args = 0
 193              		@ link register save eliminated.
 330:Generated_Source\PSoC5/Loop_Interrupt.c ****     /* Get the state of the general interrupt. */
 331:Generated_Source\PSoC5/Loop_Interrupt.c ****     return ((*Loop_Interrupt_INTC_SET_EN & (uint32)Loop_Interrupt__INTC_MASK) != 0u) ? 1u:0u;
 194              		.loc 1 331 0
 195 0000 024B     		ldr	r3, .L20
 196 0002 1868     		ldr	r0, [r3]
 332:Generated_Source\PSoC5/Loop_Interrupt.c **** }
 197              		.loc 1 332 0
 198 0004 00F00100 		and	r0, r0, #1
 199 0008 7047     		bx	lr
 200              	.L21:
 201 000a 00BF     		.align	2
 202              	.L20:
 203 000c 00E100E0 		.word	-536813312
 204              		.cfi_endproc
 205              	.LFE9:
 206              		.size	Loop_Interrupt_GetState, .-Loop_Interrupt_GetState
 207              		.section	.text.Loop_Interrupt_Disable,"ax",%progbits
 208              		.align	2
 209              		.global	Loop_Interrupt_Disable
 210              		.thumb
 211              		.thumb_func
 212              		.type	Loop_Interrupt_Disable, %function
 213              	Loop_Interrupt_Disable:
 214              	.LFB10:
 333:Generated_Source\PSoC5/Loop_Interrupt.c **** 
 334:Generated_Source\PSoC5/Loop_Interrupt.c **** 
 335:Generated_Source\PSoC5/Loop_Interrupt.c **** /*******************************************************************************
 336:Generated_Source\PSoC5/Loop_Interrupt.c **** * Function Name: Loop_Interrupt_Disable
 337:Generated_Source\PSoC5/Loop_Interrupt.c **** ********************************************************************************
 338:Generated_Source\PSoC5/Loop_Interrupt.c **** *
 339:Generated_Source\PSoC5/Loop_Interrupt.c **** * Summary:
 340:Generated_Source\PSoC5/Loop_Interrupt.c **** *   Disables the Interrupt in the interrupt controller.
 341:Generated_Source\PSoC5/Loop_Interrupt.c **** *
 342:Generated_Source\PSoC5/Loop_Interrupt.c **** * Parameters:
 343:Generated_Source\PSoC5/Loop_Interrupt.c **** *   None
 344:Generated_Source\PSoC5/Loop_Interrupt.c **** *
 345:Generated_Source\PSoC5/Loop_Interrupt.c **** * Return:
 346:Generated_Source\PSoC5/Loop_Interrupt.c **** *   None
 347:Generated_Source\PSoC5/Loop_Interrupt.c **** *
 348:Generated_Source\PSoC5/Loop_Interrupt.c **** *******************************************************************************/
 349:Generated_Source\PSoC5/Loop_Interrupt.c **** void Loop_Interrupt_Disable(void)
 350:Generated_Source\PSoC5/Loop_Interrupt.c **** {
 215              		.loc 1 350 0
 216              		.cfi_startproc
 217              		@ args = 0, pretend = 0, frame = 0
 218              		@ frame_needed = 0, uses_anonymous_args = 0
 219              		@ link register save eliminated.
 351:Generated_Source\PSoC5/Loop_Interrupt.c ****     /* Disable the general interrupt. */
ARM GAS  C:\Users\pajoh\AppData\Local\Temp\ccjZLVbA.s 			page 11


 352:Generated_Source\PSoC5/Loop_Interrupt.c ****     *Loop_Interrupt_INTC_CLR_EN = Loop_Interrupt__INTC_MASK;
 220              		.loc 1 352 0
 221 0000 0122     		movs	r2, #1
 222 0002 014B     		ldr	r3, .L23
 223 0004 1A60     		str	r2, [r3]
 224 0006 7047     		bx	lr
 225              	.L24:
 226              		.align	2
 227              	.L23:
 228 0008 80E100E0 		.word	-536813184
 229              		.cfi_endproc
 230              	.LFE10:
 231              		.size	Loop_Interrupt_Disable, .-Loop_Interrupt_Disable
 232              		.section	.text.Loop_Interrupt_Start,"ax",%progbits
 233              		.align	2
 234              		.global	Loop_Interrupt_Start
 235              		.thumb
 236              		.thumb_func
 237              		.type	Loop_Interrupt_Start, %function
 238              	Loop_Interrupt_Start:
 239              	.LFB0:
  62:Generated_Source\PSoC5/Loop_Interrupt.c ****     /* For all we know the interrupt is active. */
 240              		.loc 1 62 0
 241              		.cfi_startproc
 242              		@ args = 0, pretend = 0, frame = 0
 243              		@ frame_needed = 0, uses_anonymous_args = 0
 244 0000 08B5     		push	{r3, lr}
 245              		.cfi_def_cfa_offset 8
 246              		.cfi_offset 3, -8
 247              		.cfi_offset 14, -4
  64:Generated_Source\PSoC5/Loop_Interrupt.c **** 
 248              		.loc 1 64 0
 249 0002 FFF7FEFF 		bl	Loop_Interrupt_Disable
 250              	.LVL7:
  67:Generated_Source\PSoC5/Loop_Interrupt.c **** 
 251              		.loc 1 67 0
 252 0006 0448     		ldr	r0, .L27
 253 0008 FFF7FEFF 		bl	Loop_Interrupt_SetVector
 254              	.LVL8:
  70:Generated_Source\PSoC5/Loop_Interrupt.c **** 
 255              		.loc 1 70 0
 256 000c 0720     		movs	r0, #7
 257 000e FFF7FEFF 		bl	Loop_Interrupt_SetPriority
 258              	.LVL9:
  73:Generated_Source\PSoC5/Loop_Interrupt.c **** }
 259              		.loc 1 73 0
 260 0012 FFF7FEFF 		bl	Loop_Interrupt_Enable
 261              	.LVL10:
 262 0016 08BD     		pop	{r3, pc}
 263              	.L28:
 264              		.align	2
 265              	.L27:
 266 0018 00000000 		.word	Loop_Interrupt_Interrupt
 267              		.cfi_endproc
 268              	.LFE0:
 269              		.size	Loop_Interrupt_Start, .-Loop_Interrupt_Start
 270              		.section	.text.Loop_Interrupt_StartEx,"ax",%progbits
ARM GAS  C:\Users\pajoh\AppData\Local\Temp\ccjZLVbA.s 			page 12


 271              		.align	2
 272              		.global	Loop_Interrupt_StartEx
 273              		.thumb
 274              		.thumb_func
 275              		.type	Loop_Interrupt_StartEx, %function
 276              	Loop_Interrupt_StartEx:
 277              	.LFB1:
 105:Generated_Source\PSoC5/Loop_Interrupt.c ****     /* For all we know the interrupt is active. */
 278              		.loc 1 105 0
 279              		.cfi_startproc
 280              		@ args = 0, pretend = 0, frame = 0
 281              		@ frame_needed = 0, uses_anonymous_args = 0
 282              	.LVL11:
 283 0000 10B5     		push	{r4, lr}
 284              		.cfi_def_cfa_offset 8
 285              		.cfi_offset 4, -8
 286              		.cfi_offset 14, -4
 287 0002 0446     		mov	r4, r0
 107:Generated_Source\PSoC5/Loop_Interrupt.c **** 
 288              		.loc 1 107 0
 289 0004 FFF7FEFF 		bl	Loop_Interrupt_Disable
 290              	.LVL12:
 110:Generated_Source\PSoC5/Loop_Interrupt.c **** 
 291              		.loc 1 110 0
 292 0008 2046     		mov	r0, r4
 293 000a FFF7FEFF 		bl	Loop_Interrupt_SetVector
 294              	.LVL13:
 113:Generated_Source\PSoC5/Loop_Interrupt.c **** 
 295              		.loc 1 113 0
 296 000e 0720     		movs	r0, #7
 297 0010 FFF7FEFF 		bl	Loop_Interrupt_SetPriority
 298              	.LVL14:
 116:Generated_Source\PSoC5/Loop_Interrupt.c **** }
 299              		.loc 1 116 0
 300 0014 FFF7FEFF 		bl	Loop_Interrupt_Enable
 301              	.LVL15:
 302 0018 10BD     		pop	{r4, pc}
 303              		.cfi_endproc
 304              	.LFE1:
 305              		.size	Loop_Interrupt_StartEx, .-Loop_Interrupt_StartEx
 306 001a 00BF     		.section	.text.Loop_Interrupt_Stop,"ax",%progbits
 307              		.align	2
 308              		.global	Loop_Interrupt_Stop
 309              		.thumb
 310              		.thumb_func
 311              		.type	Loop_Interrupt_Stop, %function
 312              	Loop_Interrupt_Stop:
 313              	.LFB2:
 135:Generated_Source\PSoC5/Loop_Interrupt.c ****     /* Disable this interrupt. */
 314              		.loc 1 135 0
 315              		.cfi_startproc
 316              		@ args = 0, pretend = 0, frame = 0
 317              		@ frame_needed = 0, uses_anonymous_args = 0
 318 0000 08B5     		push	{r3, lr}
 319              		.cfi_def_cfa_offset 8
 320              		.cfi_offset 3, -8
 321              		.cfi_offset 14, -4
ARM GAS  C:\Users\pajoh\AppData\Local\Temp\ccjZLVbA.s 			page 13


 137:Generated_Source\PSoC5/Loop_Interrupt.c **** 
 322              		.loc 1 137 0
 323 0002 FFF7FEFF 		bl	Loop_Interrupt_Disable
 324              	.LVL16:
 140:Generated_Source\PSoC5/Loop_Interrupt.c **** }
 325              		.loc 1 140 0
 326 0006 0248     		ldr	r0, .L33
 327 0008 FFF7FEFF 		bl	Loop_Interrupt_SetVector
 328              	.LVL17:
 329 000c 08BD     		pop	{r3, pc}
 330              	.L34:
 331 000e 00BF     		.align	2
 332              	.L33:
 333 0010 00000000 		.word	IntDefaultHandler
 334              		.cfi_endproc
 335              	.LFE2:
 336              		.size	Loop_Interrupt_Stop, .-Loop_Interrupt_Stop
 337              		.section	.text.Loop_Interrupt_SetPending,"ax",%progbits
 338              		.align	2
 339              		.global	Loop_Interrupt_SetPending
 340              		.thumb
 341              		.thumb_func
 342              		.type	Loop_Interrupt_SetPending, %function
 343              	Loop_Interrupt_SetPending:
 344              	.LFB11:
 353:Generated_Source\PSoC5/Loop_Interrupt.c **** }
 354:Generated_Source\PSoC5/Loop_Interrupt.c **** 
 355:Generated_Source\PSoC5/Loop_Interrupt.c **** 
 356:Generated_Source\PSoC5/Loop_Interrupt.c **** /*******************************************************************************
 357:Generated_Source\PSoC5/Loop_Interrupt.c **** * Function Name: Loop_Interrupt_SetPending
 358:Generated_Source\PSoC5/Loop_Interrupt.c **** ********************************************************************************
 359:Generated_Source\PSoC5/Loop_Interrupt.c **** *
 360:Generated_Source\PSoC5/Loop_Interrupt.c **** * Summary:
 361:Generated_Source\PSoC5/Loop_Interrupt.c **** *   Causes the Interrupt to enter the pending state, a software method of
 362:Generated_Source\PSoC5/Loop_Interrupt.c **** *   generating the interrupt.
 363:Generated_Source\PSoC5/Loop_Interrupt.c **** *
 364:Generated_Source\PSoC5/Loop_Interrupt.c **** * Parameters:
 365:Generated_Source\PSoC5/Loop_Interrupt.c **** *   None
 366:Generated_Source\PSoC5/Loop_Interrupt.c **** *
 367:Generated_Source\PSoC5/Loop_Interrupt.c **** * Return:
 368:Generated_Source\PSoC5/Loop_Interrupt.c **** *   None
 369:Generated_Source\PSoC5/Loop_Interrupt.c **** *
 370:Generated_Source\PSoC5/Loop_Interrupt.c **** * Side Effects:
 371:Generated_Source\PSoC5/Loop_Interrupt.c **** *   If interrupts are enabled and the interrupt is set up properly, the ISR is
 372:Generated_Source\PSoC5/Loop_Interrupt.c **** *   entered (depending on the priority of this interrupt and other pending 
 373:Generated_Source\PSoC5/Loop_Interrupt.c **** *   interrupts).
 374:Generated_Source\PSoC5/Loop_Interrupt.c **** *
 375:Generated_Source\PSoC5/Loop_Interrupt.c **** *******************************************************************************/
 376:Generated_Source\PSoC5/Loop_Interrupt.c **** void Loop_Interrupt_SetPending(void)
 377:Generated_Source\PSoC5/Loop_Interrupt.c **** {
 345              		.loc 1 377 0
 346              		.cfi_startproc
 347              		@ args = 0, pretend = 0, frame = 0
 348              		@ frame_needed = 0, uses_anonymous_args = 0
 349              		@ link register save eliminated.
 378:Generated_Source\PSoC5/Loop_Interrupt.c ****     *Loop_Interrupt_INTC_SET_PD = Loop_Interrupt__INTC_MASK;
 350              		.loc 1 378 0
ARM GAS  C:\Users\pajoh\AppData\Local\Temp\ccjZLVbA.s 			page 14


 351 0000 0122     		movs	r2, #1
 352 0002 014B     		ldr	r3, .L36
 353 0004 1A60     		str	r2, [r3]
 354 0006 7047     		bx	lr
 355              	.L37:
 356              		.align	2
 357              	.L36:
 358 0008 00E200E0 		.word	-536813056
 359              		.cfi_endproc
 360              	.LFE11:
 361              		.size	Loop_Interrupt_SetPending, .-Loop_Interrupt_SetPending
 362              		.section	.text.Loop_Interrupt_ClearPending,"ax",%progbits
 363              		.align	2
 364              		.global	Loop_Interrupt_ClearPending
 365              		.thumb
 366              		.thumb_func
 367              		.type	Loop_Interrupt_ClearPending, %function
 368              	Loop_Interrupt_ClearPending:
 369              	.LFB12:
 379:Generated_Source\PSoC5/Loop_Interrupt.c **** }
 380:Generated_Source\PSoC5/Loop_Interrupt.c **** 
 381:Generated_Source\PSoC5/Loop_Interrupt.c **** 
 382:Generated_Source\PSoC5/Loop_Interrupt.c **** /*******************************************************************************
 383:Generated_Source\PSoC5/Loop_Interrupt.c **** * Function Name: Loop_Interrupt_ClearPending
 384:Generated_Source\PSoC5/Loop_Interrupt.c **** ********************************************************************************
 385:Generated_Source\PSoC5/Loop_Interrupt.c **** *
 386:Generated_Source\PSoC5/Loop_Interrupt.c **** * Summary:
 387:Generated_Source\PSoC5/Loop_Interrupt.c **** *   Clears a pending interrupt in the interrupt controller.
 388:Generated_Source\PSoC5/Loop_Interrupt.c **** *
 389:Generated_Source\PSoC5/Loop_Interrupt.c **** *   Note Some interrupt sources are clear-on-read and require the block 
 390:Generated_Source\PSoC5/Loop_Interrupt.c **** *   interrupt/status register to be read/cleared with the appropriate block API 
 391:Generated_Source\PSoC5/Loop_Interrupt.c **** *   (GPIO, UART, and so on). Otherwise the ISR will continue to remain in 
 392:Generated_Source\PSoC5/Loop_Interrupt.c **** *   pending state even though the interrupt itself is cleared using this API.
 393:Generated_Source\PSoC5/Loop_Interrupt.c **** *
 394:Generated_Source\PSoC5/Loop_Interrupt.c **** * Parameters:
 395:Generated_Source\PSoC5/Loop_Interrupt.c **** *   None
 396:Generated_Source\PSoC5/Loop_Interrupt.c **** *
 397:Generated_Source\PSoC5/Loop_Interrupt.c **** * Return:
 398:Generated_Source\PSoC5/Loop_Interrupt.c **** *   None
 399:Generated_Source\PSoC5/Loop_Interrupt.c **** *
 400:Generated_Source\PSoC5/Loop_Interrupt.c **** *******************************************************************************/
 401:Generated_Source\PSoC5/Loop_Interrupt.c **** void Loop_Interrupt_ClearPending(void)
 402:Generated_Source\PSoC5/Loop_Interrupt.c **** {
 370              		.loc 1 402 0
 371              		.cfi_startproc
 372              		@ args = 0, pretend = 0, frame = 0
 373              		@ frame_needed = 0, uses_anonymous_args = 0
 374              		@ link register save eliminated.
 403:Generated_Source\PSoC5/Loop_Interrupt.c ****     *Loop_Interrupt_INTC_CLR_PD = Loop_Interrupt__INTC_MASK;
 375              		.loc 1 403 0
 376 0000 0122     		movs	r2, #1
 377 0002 014B     		ldr	r3, .L39
 378 0004 1A60     		str	r2, [r3]
 379 0006 7047     		bx	lr
 380              	.L40:
 381              		.align	2
 382              	.L39:
ARM GAS  C:\Users\pajoh\AppData\Local\Temp\ccjZLVbA.s 			page 15


 383 0008 80E200E0 		.word	-536812928
 384              		.cfi_endproc
 385              	.LFE12:
 386              		.size	Loop_Interrupt_ClearPending, .-Loop_Interrupt_ClearPending
 387              		.text
 388              	.Letext0:
 389              		.file 2 "Generated_Source\\PSoC5/cytypes.h"