ARM GAS  C:\Users\pajoh\AppData\Local\Temp\ccmbhX9p.s 			page 1


   1              		.syntax unified
   2              		.cpu cortex-m3
   3              		.fpu softvfp
   4              		.eabi_attribute 20, 1
   5              		.eabi_attribute 21, 1
   6              		.eabi_attribute 23, 3
   7              		.eabi_attribute 24, 1
   8              		.eabi_attribute 25, 1
   9              		.eabi_attribute 26, 1
  10              		.eabi_attribute 30, 1
  11              		.eabi_attribute 34, 1
  12              		.eabi_attribute 18, 4
  13              		.thumb
  14              		.syntax unified
  15              		.file	"parameters.c"
  16              		.text
  17              	.Ltext0:
  18              		.cfi_sections	.debug_frame
  19              		.section	.text.init_parameters,"ax",%progbits
  20              		.align	2
  21              		.global	init_parameters
  22              		.thumb
  23              		.thumb_func
  24              		.type	init_parameters, %function
  25              	init_parameters:
  26              	.LFB64:
  27              		.file 1 "parameters.c"
   1:parameters.c  **** /* ========================================
   2:parameters.c  ****  *
   3:parameters.c  ****  * Copyright YOUR COMPANY, THE YEAR
   4:parameters.c  ****  * All Rights Reserved
   5:parameters.c  ****  * UNPUBLISHED, LICENSED SOFTWARE.
   6:parameters.c  ****  *
   7:parameters.c  ****  * CONFIDENTIAL AND PROPRIETARY INFORMATION
   8:parameters.c  ****  * WHICH IS THE PROPERTY OF your company.
   9:parameters.c  ****  *
  10:parameters.c  ****  * ========================================
  11:parameters.c  **** */
  12:parameters.c  **** 
  13:parameters.c  **** #include "parameters.h"
  14:parameters.c  **** 
  15:parameters.c  **** void init_parameters(parameter_ts * parameter_s){
  28              		.loc 1 15 0
  29              		.cfi_startproc
  30              		@ args = 0, pretend = 0, frame = 0
  31              		@ frame_needed = 0, uses_anonymous_args = 0
  32              		@ link register save eliminated.
  33              	.LVL0:
  16:parameters.c  ****     int i;
  17:parameters.c  ****     for(i = 0; i < PARAM_SIZE; i++){
  34              		.loc 1 17 0
  35 0000 0023     		movs	r3, #0
  36 0002 09E0     		b	.L2
  37              	.LVL1:
  38              	.L3:
  18:parameters.c  ****         parameter_s->var_s[i].type = 0;
  39              		.loc 1 18 0 discriminator 3
ARM GAS  C:\Users\pajoh\AppData\Local\Temp\ccmbhX9p.s 			page 2


  40 0004 00EBC301 		add	r1, r0, r3, lsl #3
  41 0008 0022     		movs	r2, #0
  42 000a 0A71     		strb	r2, [r1, #4]
  19:parameters.c  ****         parameter_s->var_s[i].var_ptr = 0;
  43              		.loc 1 19 0 discriminator 3
  44 000c 40F83320 		str	r2, [r0, r3, lsl #3]
  20:parameters.c  ****         parameter_s->param[i] = 0;
  45              		.loc 1 20 0 discriminator 3
  46 0010 C118     		adds	r1, r0, r3
  47 0012 81F80428 		strb	r2, [r1, #2052]
  17:parameters.c  ****         parameter_s->var_s[i].type = 0;
  48              		.loc 1 17 0 discriminator 3
  49 0016 0133     		adds	r3, r3, #1
  50              	.LVL2:
  51              	.L2:
  17:parameters.c  ****         parameter_s->var_s[i].type = 0;
  52              		.loc 1 17 0 is_stmt 0 discriminator 1
  53 0018 FF2B     		cmp	r3, #255
  54 001a F3DD     		ble	.L3
  21:parameters.c  ****     }
  22:parameters.c  ****     parameter_s->num_vars = 0;
  55              		.loc 1 22 0 is_stmt 1
  56 001c 0023     		movs	r3, #0
  57              	.LVL3:
  58 001e C0F80038 		str	r3, [r0, #2048]
  59 0022 7047     		bx	lr
  60              		.cfi_endproc
  61              	.LFE64:
  62              		.size	init_parameters, .-init_parameters
  63              		.section	.text.get_parameter_offset,"ax",%progbits
  64              		.align	2
  65              		.global	get_parameter_offset
  66              		.thumb
  67              		.thumb_func
  68              		.type	get_parameter_offset, %function
  69              	get_parameter_offset:
  70              	.LFB65:
  23:parameters.c  **** }
  24:parameters.c  **** 
  25:parameters.c  **** int get_parameter_offset(uint8 par_num, parameter_ts * parameter_s){
  71              		.loc 1 25 0
  72              		.cfi_startproc
  73              		@ args = 0, pretend = 0, frame = 0
  74              		@ frame_needed = 0, uses_anonymous_args = 0
  75              	.LVL4:
  76 0000 F8B5     		push	{r3, r4, r5, r6, r7, lr}
  77              		.cfi_def_cfa_offset 24
  78              		.cfi_offset 3, -24
  79              		.cfi_offset 4, -20
  80              		.cfi_offset 5, -16
  81              		.cfi_offset 6, -12
  82              		.cfi_offset 7, -8
  83              		.cfi_offset 14, -4
  84 0002 0646     		mov	r6, r0
  85 0004 0F46     		mov	r7, r1
  86              	.LVL5:
  26:parameters.c  ****     int i = 0;
ARM GAS  C:\Users\pajoh\AppData\Local\Temp\ccmbhX9p.s 			page 3


  27:parameters.c  ****     int offset = 0;
  87              		.loc 1 27 0
  88 0006 0025     		movs	r5, #0
  28:parameters.c  ****     for(i = 0; i < par_num; i++){
  89              		.loc 1 28 0
  90 0008 2C46     		mov	r4, r5
  91 000a 06E0     		b	.L5
  92              	.LVL6:
  93              	.L6:
  29:parameters.c  ****         offset += var_size(parameter_s->var_s[i].type);   
  94              		.loc 1 29 0 discriminator 3
  95 000c 07EBC403 		add	r3, r7, r4, lsl #3
  96 0010 1879     		ldrb	r0, [r3, #4]	@ zero_extendqisi2
  97 0012 FFF7FEFF 		bl	var_size
  98              	.LVL7:
  99 0016 0544     		add	r5, r5, r0
 100              	.LVL8:
  28:parameters.c  ****     for(i = 0; i < par_num; i++){
 101              		.loc 1 28 0 discriminator 3
 102 0018 0134     		adds	r4, r4, #1
 103              	.LVL9:
 104              	.L5:
  28:parameters.c  ****     for(i = 0; i < par_num; i++){
 105              		.loc 1 28 0 is_stmt 0 discriminator 1
 106 001a B442     		cmp	r4, r6
 107 001c F6DB     		blt	.L6
  30:parameters.c  ****     }
  31:parameters.c  ****     return offset;
  32:parameters.c  **** }
 108              		.loc 1 32 0 is_stmt 1
 109 001e 2846     		mov	r0, r5
 110 0020 F8BD     		pop	{r3, r4, r5, r6, r7, pc}
 111              		.cfi_endproc
 112              	.LFE65:
 113              		.size	get_parameter_offset, .-get_parameter_offset
 114 0022 00BF     		.section	.text._set_parameter,"ax",%progbits
 115              		.align	2
 116              		.global	_set_parameter
 117              		.thumb
 118              		.thumb_func
 119              		.type	_set_parameter, %function
 120              	_set_parameter:
 121              	.LFB68:
  33:parameters.c  **** 
  34:parameters.c  **** void set_parameter(uint8 par_num, void * value, parameter_ts * parameter_s){
  35:parameters.c  ****     int offset= 0;
  36:parameters.c  ****     int i;
  37:parameters.c  ****     
  38:parameters.c  ****     offset = get_parameter_offset(par_num, parameter_s);
  39:parameters.c  ****     _set_parameter(offset,value,var_size(parameter_s->var_s[par_num].type),parameter_s);
  40:parameters.c  **** }
  41:parameters.c  **** 
  42:parameters.c  **** void get_parameter(uint8 par_num, void * value, parameter_ts * parameter_s){
  43:parameters.c  ****     int offset = 0;
  44:parameters.c  ****     int i;
  45:parameters.c  ****     
  46:parameters.c  ****     offset = get_parameter_offset(par_num,parameter_s);
ARM GAS  C:\Users\pajoh\AppData\Local\Temp\ccmbhX9p.s 			page 4


  47:parameters.c  ****     _get_parameter(offset,value,var_size(parameter_s->var_s[par_num].type),parameter_s);
  48:parameters.c  **** }
  49:parameters.c  **** 
  50:parameters.c  **** void _set_parameter(uint32 address, void * data, uint32 size, parameter_ts * parameter_s){
 122              		.loc 1 50 0
 123              		.cfi_startproc
 124              		@ args = 0, pretend = 0, frame = 0
 125              		@ frame_needed = 0, uses_anonymous_args = 0
 126              		@ link register save eliminated.
 127              	.LVL10:
 128 0000 70B4     		push	{r4, r5, r6}
 129              		.cfi_def_cfa_offset 12
 130              		.cfi_offset 4, -12
 131              		.cfi_offset 5, -8
 132              		.cfi_offset 6, -4
 133              	.LVL11:
  51:parameters.c  ****     uint8 * data_ptr;
  52:parameters.c  ****     uint32 i;
  53:parameters.c  ****     data_ptr = (uint8 *)data;
  54:parameters.c  ****     if(size + address < PARAM_SIZE){
 134              		.loc 1 54 0
 135 0002 1418     		adds	r4, r2, r0
 136 0004 FF2C     		cmp	r4, #255
 137 0006 07D9     		bls	.L12
 138 0008 09E0     		b	.L8
 139              	.LVL12:
 140              	.L11:
  55:parameters.c  ****         for(i = 0; i < size; i++){
  56:parameters.c  ****             parameter_s->param[address+i] = data_ptr[i]; 
 141              		.loc 1 56 0 discriminator 3
 142 000a 2518     		adds	r5, r4, r0
 143 000c 0E5D     		ldrb	r6, [r1, r4]	@ zero_extendqisi2
 144 000e 1D44     		add	r5, r5, r3
 145 0010 85F80468 		strb	r6, [r5, #2052]
  55:parameters.c  ****         for(i = 0; i < size; i++){
 146              		.loc 1 55 0 discriminator 3
 147 0014 0134     		adds	r4, r4, #1
 148              	.LVL13:
 149 0016 00E0     		b	.L9
 150              	.LVL14:
 151              	.L12:
 152 0018 0024     		movs	r4, #0
 153              	.L9:
 154              	.LVL15:
  55:parameters.c  ****         for(i = 0; i < size; i++){
 155              		.loc 1 55 0 is_stmt 0 discriminator 1
 156 001a 9442     		cmp	r4, r2
 157 001c F5D3     		bcc	.L11
 158              	.LVL16:
 159              	.L8:
  57:parameters.c  ****         }
  58:parameters.c  ****     }
  59:parameters.c  **** }
 160              		.loc 1 59 0 is_stmt 1
 161 001e 70BC     		pop	{r4, r5, r6}
 162              		.cfi_restore 6
 163              		.cfi_restore 5
ARM GAS  C:\Users\pajoh\AppData\Local\Temp\ccmbhX9p.s 			page 5


 164              		.cfi_restore 4
 165              		.cfi_def_cfa_offset 0
 166 0020 7047     		bx	lr
 167              		.cfi_endproc
 168              	.LFE68:
 169              		.size	_set_parameter, .-_set_parameter
 170 0022 00BF     		.section	.text.set_parameter,"ax",%progbits
 171              		.align	2
 172              		.global	set_parameter
 173              		.thumb
 174              		.thumb_func
 175              		.type	set_parameter, %function
 176              	set_parameter:
 177              	.LFB66:
  34:parameters.c  ****     int offset= 0;
 178              		.loc 1 34 0
 179              		.cfi_startproc
 180              		@ args = 0, pretend = 0, frame = 0
 181              		@ frame_needed = 0, uses_anonymous_args = 0
 182              	.LVL17:
 183 0000 F8B5     		push	{r3, r4, r5, r6, r7, lr}
 184              		.cfi_def_cfa_offset 24
 185              		.cfi_offset 3, -24
 186              		.cfi_offset 4, -20
 187              		.cfi_offset 5, -16
 188              		.cfi_offset 6, -12
 189              		.cfi_offset 7, -8
 190              		.cfi_offset 14, -4
 191 0002 0546     		mov	r5, r0
 192 0004 0F46     		mov	r7, r1
 193 0006 1446     		mov	r4, r2
 194              	.LVL18:
  38:parameters.c  ****     _set_parameter(offset,value,var_size(parameter_s->var_s[par_num].type),parameter_s);
 195              		.loc 1 38 0
 196 0008 1146     		mov	r1, r2
 197              	.LVL19:
 198 000a FFF7FEFF 		bl	get_parameter_offset
 199              	.LVL20:
 200 000e 0646     		mov	r6, r0
 201              	.LVL21:
  39:parameters.c  **** }
 202              		.loc 1 39 0
 203 0010 04EBC505 		add	r5, r4, r5, lsl #3
 204 0014 2879     		ldrb	r0, [r5, #4]	@ zero_extendqisi2
 205              	.LVL22:
 206 0016 FFF7FEFF 		bl	var_size
 207              	.LVL23:
 208 001a 2346     		mov	r3, r4
 209 001c 0246     		mov	r2, r0
 210 001e 3946     		mov	r1, r7
 211 0020 3046     		mov	r0, r6
 212 0022 FFF7FEFF 		bl	_set_parameter
 213              	.LVL24:
 214 0026 F8BD     		pop	{r3, r4, r5, r6, r7, pc}
 215              		.cfi_endproc
 216              	.LFE66:
 217              		.size	set_parameter, .-set_parameter
ARM GAS  C:\Users\pajoh\AppData\Local\Temp\ccmbhX9p.s 			page 6


 218              		.section	.text._get_parameter,"ax",%progbits
 219              		.align	2
 220              		.global	_get_parameter
 221              		.thumb
 222              		.thumb_func
 223              		.type	_get_parameter, %function
 224              	_get_parameter:
 225              	.LFB69:
  60:parameters.c  **** 
  61:parameters.c  **** void _get_parameter(uint32 address, void * data, uint32 size, parameter_ts * parameter_s){
 226              		.loc 1 61 0
 227              		.cfi_startproc
 228              		@ args = 0, pretend = 0, frame = 0
 229              		@ frame_needed = 0, uses_anonymous_args = 0
 230              		@ link register save eliminated.
 231              	.LVL25:
 232 0000 30B4     		push	{r4, r5}
 233              		.cfi_def_cfa_offset 8
 234              		.cfi_offset 4, -8
 235              		.cfi_offset 5, -4
 236              	.LVL26:
  62:parameters.c  ****     uint8 * data_ptr;
  63:parameters.c  ****     uint32 i;
  64:parameters.c  ****     data_ptr = (uint8 *) data;
  65:parameters.c  ****     if(size + address < PARAM_SIZE){
 237              		.loc 1 65 0
 238 0002 1418     		adds	r4, r2, r0
 239 0004 FF2C     		cmp	r4, #255
 240 0006 07D9     		bls	.L20
 241 0008 09E0     		b	.L16
 242              	.LVL27:
 243              	.L19:
  66:parameters.c  ****         for(i = 0; i < size; i++){
  67:parameters.c  ****             data_ptr[i] = parameter_s->param[address+i];   
 244              		.loc 1 67 0 discriminator 3
 245 000a 2518     		adds	r5, r4, r0
 246 000c 1D44     		add	r5, r5, r3
 247 000e 95F80458 		ldrb	r5, [r5, #2052]	@ zero_extendqisi2
 248 0012 0D55     		strb	r5, [r1, r4]
  66:parameters.c  ****         for(i = 0; i < size; i++){
 249              		.loc 1 66 0 discriminator 3
 250 0014 0134     		adds	r4, r4, #1
 251              	.LVL28:
 252 0016 00E0     		b	.L17
 253              	.LVL29:
 254              	.L20:
 255 0018 0024     		movs	r4, #0
 256              	.L17:
 257              	.LVL30:
  66:parameters.c  ****         for(i = 0; i < size; i++){
 258              		.loc 1 66 0 is_stmt 0 discriminator 1
 259 001a 9442     		cmp	r4, r2
 260 001c F5D3     		bcc	.L19
 261              	.LVL31:
 262              	.L16:
  68:parameters.c  ****         }
  69:parameters.c  ****     }
ARM GAS  C:\Users\pajoh\AppData\Local\Temp\ccmbhX9p.s 			page 7


  70:parameters.c  **** }
 263              		.loc 1 70 0 is_stmt 1
 264 001e 30BC     		pop	{r4, r5}
 265              		.cfi_restore 5
 266              		.cfi_restore 4
 267              		.cfi_def_cfa_offset 0
 268 0020 7047     		bx	lr
 269              		.cfi_endproc
 270              	.LFE69:
 271              		.size	_get_parameter, .-_get_parameter
 272 0022 00BF     		.section	.text.get_parameter,"ax",%progbits
 273              		.align	2
 274              		.global	get_parameter
 275              		.thumb
 276              		.thumb_func
 277              		.type	get_parameter, %function
 278              	get_parameter:
 279              	.LFB67:
  42:parameters.c  ****     int offset = 0;
 280              		.loc 1 42 0
 281              		.cfi_startproc
 282              		@ args = 0, pretend = 0, frame = 0
 283              		@ frame_needed = 0, uses_anonymous_args = 0
 284              	.LVL32:
 285 0000 F8B5     		push	{r3, r4, r5, r6, r7, lr}
 286              		.cfi_def_cfa_offset 24
 287              		.cfi_offset 3, -24
 288              		.cfi_offset 4, -20
 289              		.cfi_offset 5, -16
 290              		.cfi_offset 6, -12
 291              		.cfi_offset 7, -8
 292              		.cfi_offset 14, -4
 293 0002 0546     		mov	r5, r0
 294 0004 0F46     		mov	r7, r1
 295 0006 1446     		mov	r4, r2
 296              	.LVL33:
  46:parameters.c  ****     _get_parameter(offset,value,var_size(parameter_s->var_s[par_num].type),parameter_s);
 297              		.loc 1 46 0
 298 0008 1146     		mov	r1, r2
 299              	.LVL34:
 300 000a FFF7FEFF 		bl	get_parameter_offset
 301              	.LVL35:
 302 000e 0646     		mov	r6, r0
 303              	.LVL36:
  47:parameters.c  **** }
 304              		.loc 1 47 0
 305 0010 04EBC505 		add	r5, r4, r5, lsl #3
 306 0014 2879     		ldrb	r0, [r5, #4]	@ zero_extendqisi2
 307              	.LVL37:
 308 0016 FFF7FEFF 		bl	var_size
 309              	.LVL38:
 310 001a 2346     		mov	r3, r4
 311 001c 0246     		mov	r2, r0
 312 001e 3946     		mov	r1, r7
 313 0020 3046     		mov	r0, r6
 314 0022 FFF7FEFF 		bl	_get_parameter
 315              	.LVL39:
ARM GAS  C:\Users\pajoh\AppData\Local\Temp\ccmbhX9p.s 			page 8


 316 0026 F8BD     		pop	{r3, r4, r5, r6, r7, pc}
 317              		.cfi_endproc
 318              	.LFE67:
 319              		.size	get_parameter, .-get_parameter
 320              		.section	.text._save_parameters,"ax",%progbits
 321              		.align	2
 322              		.global	_save_parameters
 323              		.thumb
 324              		.thumb_func
 325              		.type	_save_parameters, %function
 326              	_save_parameters:
 327              	.LFB70:
  71:parameters.c  **** 
  72:parameters.c  **** void _save_parameters(parameter_ts * parameter_s){
 328              		.loc 1 72 0
 329              		.cfi_startproc
 330              		@ args = 0, pretend = 0, frame = 0
 331              		@ frame_needed = 0, uses_anonymous_args = 0
 332              	.LVL40:
 333 0000 08B5     		push	{r3, lr}
 334              		.cfi_def_cfa_offset 8
 335              		.cfi_offset 3, -8
 336              		.cfi_offset 14, -4
  73:parameters.c  ****     Em_EEPROM_Write(0,parameter_s->param,PARAM_SIZE);   
 337              		.loc 1 73 0
 338 0002 044B     		ldr	r3, .L26
 339 0004 4FF48072 		mov	r2, #256
 340 0008 00F60401 		addw	r1, r0, #2052
 341 000c 0020     		movs	r0, #0
 342              	.LVL41:
 343 000e FFF7FEFF 		bl	Cy_Em_EEPROM_Write
 344              	.LVL42:
 345 0012 08BD     		pop	{r3, pc}
 346              	.L27:
 347              		.align	2
 348              	.L26:
 349 0014 00000000 		.word	Em_EEPROM_context
 350              		.cfi_endproc
 351              	.LFE70:
 352              		.size	_save_parameters, .-_save_parameters
 353              		.section	.text._read_parameters,"ax",%progbits
 354              		.align	2
 355              		.global	_read_parameters
 356              		.thumb
 357              		.thumb_func
 358              		.type	_read_parameters, %function
 359              	_read_parameters:
 360              	.LFB71:
  74:parameters.c  **** }
  75:parameters.c  **** 
  76:parameters.c  **** void _read_parameters(parameter_ts * parameter_s){
 361              		.loc 1 76 0
 362              		.cfi_startproc
 363              		@ args = 0, pretend = 0, frame = 0
 364              		@ frame_needed = 0, uses_anonymous_args = 0
 365              	.LVL43:
 366 0000 08B5     		push	{r3, lr}
ARM GAS  C:\Users\pajoh\AppData\Local\Temp\ccmbhX9p.s 			page 9


 367              		.cfi_def_cfa_offset 8
 368              		.cfi_offset 3, -8
 369              		.cfi_offset 14, -4
  77:parameters.c  ****     Em_EEPROM_Read(0,parameter_s->param,PARAM_SIZE);   
 370              		.loc 1 77 0
 371 0002 044B     		ldr	r3, .L30
 372 0004 4FF48072 		mov	r2, #256
 373 0008 00F60401 		addw	r1, r0, #2052
 374 000c 0020     		movs	r0, #0
 375              	.LVL44:
 376 000e FFF7FEFF 		bl	Cy_Em_EEPROM_Read
 377              	.LVL45:
 378 0012 08BD     		pop	{r3, pc}
 379              	.L31:
 380              		.align	2
 381              	.L30:
 382 0014 00000000 		.word	Em_EEPROM_context
 383              		.cfi_endproc
 384              	.LFE71:
 385              		.size	_read_parameters, .-_read_parameters
 386              		.section	.text.add_parameter,"ax",%progbits
 387              		.align	2
 388              		.global	add_parameter
 389              		.thumb
 390              		.thumb_func
 391              		.type	add_parameter, %function
 392              	add_parameter:
 393              	.LFB72:
  78:parameters.c  **** }
  79:parameters.c  **** 
  80:parameters.c  **** void add_parameter(void * var, enum types_e type, parameter_ts * parameter_s){
 394              		.loc 1 80 0
 395              		.cfi_startproc
 396              		@ args = 0, pretend = 0, frame = 8
 397              		@ frame_needed = 0, uses_anonymous_args = 0
 398              		@ link register save eliminated.
 399              	.LVL46:
 400 0000 10B4     		push	{r4}
 401              		.cfi_def_cfa_offset 4
 402              		.cfi_offset 4, -4
 403 0002 83B0     		sub	sp, sp, #12
 404              		.cfi_def_cfa_offset 16
  81:parameters.c  ****     var_parameter_ts temp_var;
  82:parameters.c  ****     temp_var.type = type;
 405              		.loc 1 82 0
 406 0004 8DF80410 		strb	r1, [sp, #4]
  83:parameters.c  ****     temp_var.var_ptr = var;
 407              		.loc 1 83 0
 408 0008 0090     		str	r0, [sp]
  84:parameters.c  ****     if(parameter_s->num_vars < PARAM_SIZE){
 409              		.loc 1 84 0
 410 000a D2F80038 		ldr	r3, [r2, #2048]
 411 000e FF2B     		cmp	r3, #255
 412 0010 09DC     		bgt	.L32
  85:parameters.c  ****         parameter_s->var_s[parameter_s->num_vars] = temp_var;
 413              		.loc 1 85 0
 414 0012 02EBC304 		add	r4, r2, r3, lsl #3
ARM GAS  C:\Users\pajoh\AppData\Local\Temp\ccmbhX9p.s 			page 10


 415 0016 02A9     		add	r1, sp, #8
 416              	.LVL47:
 417 0018 11E90300 		ldmdb	r1, {r0, r1}
 418              	.LVL48:
 419 001c 84E80300 		stmia	r4, {r0, r1}
  86:parameters.c  ****         parameter_s->num_vars++;
 420              		.loc 1 86 0
 421 0020 0133     		adds	r3, r3, #1
 422 0022 C2F80038 		str	r3, [r2, #2048]
 423              	.L32:
  87:parameters.c  ****     }
  88:parameters.c  ****     return;
  89:parameters.c  **** }
 424              		.loc 1 89 0
 425 0026 03B0     		add	sp, sp, #12
 426              		.cfi_def_cfa_offset 4
 427              	.LVL49:
 428              		@ sp needed
 429 0028 10BC     		pop	{r4}
 430              		.cfi_restore 4
 431              		.cfi_def_cfa_offset 0
 432              	.LVL50:
 433 002a 7047     		bx	lr
 434              		.cfi_endproc
 435              	.LFE72:
 436              		.size	add_parameter, .-add_parameter
 437              		.section	.text.get_parameter_command,"ax",%progbits
 438              		.align	2
 439              		.global	get_parameter_command
 440              		.thumb
 441              		.thumb_func
 442              		.type	get_parameter_command, %function
 443              	get_parameter_command:
 444              	.LFB73:
  90:parameters.c  **** 
  91:parameters.c  **** void get_parameter_command(parameter_ts * parameter_s, struct usb_ts * usb_s){
 445              		.loc 1 91 0
 446              		.cfi_startproc
 447              		@ args = 0, pretend = 0, frame = 0
 448              		@ frame_needed = 0, uses_anonymous_args = 0
 449              	.LVL51:
  92:parameters.c  ****     uint32 command;
  93:parameters.c  ****     uint8 argument;
  94:parameters.c  ****     if(usb_s->usb_pub.cmd_flag != 0){
 450              		.loc 1 94 0
 451 0000 4B79     		ldrb	r3, [r1, #5]	@ zero_extendqisi2
 452 0002 002B     		cmp	r3, #0
 453 0004 55D0     		beq	.L43
  91:parameters.c  ****     uint32 command;
 454              		.loc 1 91 0
 455 0006 2DE9F041 		push	{r4, r5, r6, r7, r8, lr}
 456              		.cfi_def_cfa_offset 24
 457              		.cfi_offset 4, -24
 458              		.cfi_offset 5, -20
 459              		.cfi_offset 6, -16
 460              		.cfi_offset 7, -12
 461              		.cfi_offset 8, -8
ARM GAS  C:\Users\pajoh\AppData\Local\Temp\ccmbhX9p.s 			page 11


 462              		.cfi_offset 14, -4
 463 000a 0C46     		mov	r4, r1
 464 000c 0546     		mov	r5, r0
  95:parameters.c  ****         command = usb_s->usb_in.command[3] +0xFF * usb_s->usb_in.command[2] + \
 465              		.loc 1 95 0
 466 000e CB7C     		ldrb	r3, [r1, #19]	@ zero_extendqisi2
 467 0010 897C     		ldrb	r1, [r1, #18]	@ zero_extendqisi2
 468              	.LVL52:
 469 0012 C1EB0121 		rsb	r1, r1, r1, lsl #8
 470 0016 0B44     		add	r3, r3, r1
  96:parameters.c  ****                   0xFFFF * usb_s->usb_in.command[1] + 0xFFFFFF * usb_s->usb_in.command[0];
 471              		.loc 1 96 0
 472 0018 627C     		ldrb	r2, [r4, #17]	@ zero_extendqisi2
 473 001a C2EB0242 		rsb	r2, r2, r2, lsl #16
  95:parameters.c  ****         command = usb_s->usb_in.command[3] +0xFF * usb_s->usb_in.command[2] + \
 474              		.loc 1 95 0
 475 001e 1344     		add	r3, r3, r2
 476              		.loc 1 96 0
 477 0020 227C     		ldrb	r2, [r4, #16]	@ zero_extendqisi2
 478 0022 C2EB0262 		rsb	r2, r2, r2, lsl #24
 479 0026 1344     		add	r3, r3, r2
 480              	.LVL53:
  97:parameters.c  ****                 
  98:parameters.c  ****         switch(command){
 481              		.loc 1 98 0
 482 0028 0C2B     		cmp	r3, #12
 483 002a 0ED0     		beq	.L37
 484 002c 0D2B     		cmp	r3, #13
 485 002e 20D0     		beq	.L38
 486 0030 0B2B     		cmp	r3, #11
 487 0032 3CD1     		bne	.L35
  99:parameters.c  ****             case NOCMD:
 100:parameters.c  ****                 ;
 101:parameters.c  ****             break;
 102:parameters.c  ****             
 103:parameters.c  ****             case NUMPARS:
 104:parameters.c  ****                 //how many variables are being logged?
 105:parameters.c  ****                 //reply with number of logged variables
 106:parameters.c  ****                 usb_s->usb_out.response[0] = parameter_s->num_vars;
 488              		.loc 1 106 0
 489 0034 D0F80038 		ldr	r3, [r0, #2048]
 490              	.LVL54:
 491 0038 84F85030 		strb	r3, [r4, #80]
 107:parameters.c  ****                 usb_s->usb_out.out_flag = 1;
 492              		.loc 1 107 0
 493 003c 0123     		movs	r3, #1
 494 003e 84F89030 		strb	r3, [r4, #144]
 108:parameters.c  ****                 usb_s->usb_pub.cmd_flag = 0;
 495              		.loc 1 108 0
 496 0042 0023     		movs	r3, #0
 497 0044 6371     		strb	r3, [r4, #5]
 109:parameters.c  ****             break;
 498              		.loc 1 109 0
 499 0046 BDE8F081 		pop	{r4, r5, r6, r7, r8, pc}
 500              	.LVL55:
 501              	.L37:
 110:parameters.c  ****             
ARM GAS  C:\Users\pajoh\AppData\Local\Temp\ccmbhX9p.s 			page 12


 111:parameters.c  ****             case PARSIZE:
 112:parameters.c  ****                 //size of variable in bits?
 113:parameters.c  ****                 //variable number is the arg, argument is first byte after command
 114:parameters.c  ****                 argument = usb_s->usb_in.command[4];
 502              		.loc 1 114 0
 503 004a 237D     		ldrb	r3, [r4, #20]	@ zero_extendqisi2
 504              	.LVL56:
 115:parameters.c  ****                 if(argument <= parameter_s->num_vars){
 505              		.loc 1 115 0
 506 004c D0F80028 		ldr	r2, [r0, #2048]
 507              	.LVL57:
 508 0050 9342     		cmp	r3, r2
 509 0052 07DC     		bgt	.L40
 116:parameters.c  ****                     usb_s->usb_out.response[0] = 8*var_size(parameter_s->var_s[argument].type);
 510              		.loc 1 116 0
 511 0054 00EBC305 		add	r5, r0, r3, lsl #3
 512 0058 2879     		ldrb	r0, [r5, #4]	@ zero_extendqisi2
 513              	.LVL58:
 514 005a FFF7FEFF 		bl	var_size
 515              	.LVL59:
 516 005e C000     		lsls	r0, r0, #3
 517 0060 84F85000 		strb	r0, [r4, #80]
 518              	.L40:
 117:parameters.c  ****                 }
 118:parameters.c  ****                 usb_s->usb_out.out_flag = 1;
 519              		.loc 1 118 0
 520 0064 0123     		movs	r3, #1
 521 0066 84F89030 		strb	r3, [r4, #144]
 119:parameters.c  ****                 usb_s->usb_pub.cmd_flag = 0;
 522              		.loc 1 119 0
 523 006a 0023     		movs	r3, #0
 524 006c 6371     		strb	r3, [r4, #5]
 120:parameters.c  ****             break;
 525              		.loc 1 120 0
 526 006e BDE8F081 		pop	{r4, r5, r6, r7, r8, pc}
 527              	.LVL60:
 528              	.L38:
 121:parameters.c  ****             
 122:parameters.c  ****             case PARVAL:
 123:parameters.c  ****                 //variable name? (string)
 124:parameters.c  ****                 //variable number is the arg, first byte after command
 125:parameters.c  ****                 argument = usb_s->usb_in.command[4];
 529              		.loc 1 125 0
 530 0072 267D     		ldrb	r6, [r4, #20]	@ zero_extendqisi2
 531              	.LVL61:
 126:parameters.c  ****                 if(argument <= parameter_s->num_vars){
 532              		.loc 1 126 0
 533 0074 D0F80038 		ldr	r3, [r0, #2048]
 534              	.LVL62:
 535 0078 9E42     		cmp	r6, r3
 536 007a 13DC     		bgt	.L41
 127:parameters.c  ****                     memcpy(usb_s->usb_out.response,&parameter_s->param[get_parameter_offset(argumen
 537              		.loc 1 127 0
 538 007c 04F15008 		add	r8, r4, #80
 539 0080 0146     		mov	r1, r0
 540              	.LVL63:
 541 0082 3046     		mov	r0, r6
ARM GAS  C:\Users\pajoh\AppData\Local\Temp\ccmbhX9p.s 			page 13


 542              	.LVL64:
 543 0084 FFF7FEFF 		bl	get_parameter_offset
 544              	.LVL65:
 545 0088 00F50060 		add	r0, r0, #2048
 546 008c 2F18     		adds	r7, r5, r0
 547 008e 0437     		adds	r7, r7, #4
 548 0090 05EBC605 		add	r5, r5, r6, lsl #3
 549              	.LVL66:
 550 0094 2879     		ldrb	r0, [r5, #4]	@ zero_extendqisi2
 551 0096 FFF7FEFF 		bl	var_size
 552              	.LVL67:
 553 009a 0246     		mov	r2, r0
 554 009c 3946     		mov	r1, r7
 555 009e 4046     		mov	r0, r8
 556 00a0 FFF7FEFF 		bl	memcpy
 557              	.LVL68:
 558              	.L41:
 128:parameters.c  ****                 }
 129:parameters.c  ****                 usb_s->usb_out.out_flag = 1;
 559              		.loc 1 129 0
 560 00a4 0123     		movs	r3, #1
 561 00a6 84F89030 		strb	r3, [r4, #144]
 130:parameters.c  ****                 usb_s->usb_pub.cmd_flag = 0;
 562              		.loc 1 130 0
 563 00aa 0023     		movs	r3, #0
 564 00ac 6371     		strb	r3, [r4, #5]
 565              	.LVL69:
 566              	.L35:
 567 00ae BDE8F081 		pop	{r4, r5, r6, r7, r8, pc}
 568              	.LVL70:
 569              	.L43:
 570              		.cfi_def_cfa_offset 0
 571              		.cfi_restore 4
 572              		.cfi_restore 5
 573              		.cfi_restore 6
 574              		.cfi_restore 7
 575              		.cfi_restore 8
 576              		.cfi_restore 14
 577 00b2 7047     		bx	lr
 578              		.cfi_endproc
 579              	.LFE73:
 580              		.size	get_parameter_command, .-get_parameter_command
 581              		.text
 582              	.Letext0:
 583              		.file 2 "c:\\program files (x86)\\cypress\\psoc creator\\4.2\\psoc creator\\import\\gnu\\arm\\5.4.
 584              		.file 3 "c:\\program files (x86)\\cypress\\psoc creator\\4.2\\psoc creator\\import\\gnu\\arm\\5.4.
 585              		.file 4 "Generated_Source\\PSoC5/cytypes.h"
 586              		.file 5 "Generated_Source\\PSoC5/cy_em_eeprom.h"
 587              		.file 6 "usb.h"
 588              		.file 7 "parameters.h"
 589              		.file 8 "Generated_Source\\PSoC5/Em_EEPROM.h"
 590              		.file 9 "Generated_Source\\PSoC5/core_cm3.h"
 591              		.file 10 "datalogger.h"
 592              		.file 11 "shared_types.h"