ARM GAS  C:\Users\pajoh\AppData\Local\Temp\cctMv6zJ.s 			page 1


   1              		.syntax unified
   2              		.cpu cortex-m3
   3              		.fpu softvfp
   4              		.eabi_attribute 20, 1
   5              		.eabi_attribute 21, 1
   6              		.eabi_attribute 23, 3
   7              		.eabi_attribute 24, 1
   8              		.eabi_attribute 25, 1
   9              		.eabi_attribute 26, 1
  10              		.eabi_attribute 30, 1
  11              		.eabi_attribute 34, 1
  12              		.eabi_attribute 18, 4
  13              		.thumb
  14              		.syntax unified
  15              		.file	"usb.c"
  16              		.text
  17              	.Ltext0:
  18              		.cfi_sections	.debug_frame
  19              		.section	.text.usb_stream,"ax",%progbits
  20              		.align	2
  21              		.global	usb_stream
  22              		.thumb
  23              		.thumb_func
  24              		.type	usb_stream, %function
  25              	usb_stream:
  26              	.LFB65:
  27              		.file 1 "usb.c"
   1:usb.c         **** /* ========================================
   2:usb.c         ****  *
   3:usb.c         ****  * Copyright YOUR COMPANY, THE YEAR
   4:usb.c         ****  * All Rights Reserved
   5:usb.c         ****  * UNPUBLISHED, LICENSED SOFTWARE.
   6:usb.c         ****  *
   7:usb.c         ****  * CONFIDENTIAL AND PROPRIETARY INFORMATION
   8:usb.c         ****  * WHICH IS THE PROPERTY OF your company.
   9:usb.c         ****  *
  10:usb.c         ****  * ========================================
  11:usb.c         **** */
  12:usb.c         **** 
  13:usb.c         **** #include "usb.h"
  14:usb.c         **** 
  15:usb.c         **** void usb_task(struct usb_ts * usb_s){
  16:usb.c         ****     //call all tasks related to usb here
  17:usb.c         ****     //will be closely related to the inout interface from before
  18:usb.c         ****     usb_commands(usb_s);
  19:usb.c         ****     usb_stream(usb_s);
  20:usb.c         **** }
  21:usb.c         **** 
  22:usb.c         **** void usb_stream(struct usb_ts * usb_s){
  28              		.loc 1 22 0
  29              		.cfi_startproc
  30              		@ args = 0, pretend = 0, frame = 0
  31              		@ frame_needed = 0, uses_anonymous_args = 0
  32              	.LVL0:
  33 0000 08B5     		push	{r3, lr}
  34              		.cfi_def_cfa_offset 8
  35              		.cfi_offset 3, -8
ARM GAS  C:\Users\pajoh\AppData\Local\Temp\cctMv6zJ.s 			page 2


  36              		.cfi_offset 14, -4
  23:usb.c         ****     //get/send data with the data endpoints
  24:usb.c         ****     USBFS_LoadInEP(1, usb_s->usb_in.data, 64);
  37              		.loc 1 24 0
  38 0002 4022     		movs	r2, #64
  39 0004 4168     		ldr	r1, [r0, #4]
  40 0006 0120     		movs	r0, #1
  41              	.LVL1:
  42 0008 FFF7FEFF 		bl	USBFS_LoadInEP
  43              	.LVL2:
  44 000c 08BD     		pop	{r3, pc}
  45              		.cfi_endproc
  46              	.LFE65:
  47              		.size	usb_stream, .-usb_stream
  48 000e 00BF     		.section	.text.usb_commands,"ax",%progbits
  49              		.align	2
  50              		.global	usb_commands
  51              		.thumb
  52              		.thumb_func
  53              		.type	usb_commands, %function
  54              	usb_commands:
  55              	.LFB66:
  25:usb.c         **** }
  26:usb.c         **** 
  27:usb.c         **** void usb_commands(struct usb_ts * usb_s){
  56              		.loc 1 27 0
  57              		.cfi_startproc
  58              		@ args = 0, pretend = 0, frame = 0
  59              		@ frame_needed = 0, uses_anonymous_args = 0
  60              	.LVL3:
  61 0000 10B5     		push	{r4, lr}
  62              		.cfi_def_cfa_offset 8
  63              		.cfi_offset 4, -8
  64              		.cfi_offset 14, -4
  65 0002 0446     		mov	r4, r0
  28:usb.c         ****     //this should be a state machine   
  29:usb.c         ****     //get/send data with the command endpoints
  30:usb.c         ****     if(USBFS_bGetEPState(4) != USBFS_OUT_BUFFER_FULL){
  66              		.loc 1 30 0
  67 0004 0420     		movs	r0, #4
  68              	.LVL4:
  69 0006 FFF7FEFF 		bl	USBFS_GetEPState
  70              	.LVL5:
  71 000a 0128     		cmp	r0, #1
  72 000c 08D0     		beq	.L3
  31:usb.c         ****         USBFS_ReadOutEP(4, usb_s->usb_in.command, USBFS_wGetEPCount(2));
  73              		.loc 1 31 0
  74 000e 0C34     		adds	r4, r4, #12
  75              	.LVL6:
  76 0010 0220     		movs	r0, #2
  77 0012 FFF7FEFF 		bl	USBFS_GetEPCount
  78              	.LVL7:
  79 0016 0246     		mov	r2, r0
  80 0018 2146     		mov	r1, r4
  81 001a 0420     		movs	r0, #4
  82 001c FFF7FEFF 		bl	USBFS_ReadOutEP
  83              	.LVL8:
ARM GAS  C:\Users\pajoh\AppData\Local\Temp\cctMv6zJ.s 			page 3


  84              	.L3:
  85 0020 10BD     		pop	{r4, pc}
  86              		.cfi_endproc
  87              	.LFE66:
  88              		.size	usb_commands, .-usb_commands
  89 0022 00BF     		.section	.text.usb_task,"ax",%progbits
  90              		.align	2
  91              		.global	usb_task
  92              		.thumb
  93              		.thumb_func
  94              		.type	usb_task, %function
  95              	usb_task:
  96              	.LFB64:
  15:usb.c         ****     //call all tasks related to usb here
  97              		.loc 1 15 0
  98              		.cfi_startproc
  99              		@ args = 0, pretend = 0, frame = 0
 100              		@ frame_needed = 0, uses_anonymous_args = 0
 101              	.LVL9:
 102 0000 10B5     		push	{r4, lr}
 103              		.cfi_def_cfa_offset 8
 104              		.cfi_offset 4, -8
 105              		.cfi_offset 14, -4
 106 0002 0446     		mov	r4, r0
  18:usb.c         ****     usb_stream(usb_s);
 107              		.loc 1 18 0
 108 0004 FFF7FEFF 		bl	usb_commands
 109              	.LVL10:
  19:usb.c         **** }
 110              		.loc 1 19 0
 111 0008 2046     		mov	r0, r4
 112 000a FFF7FEFF 		bl	usb_stream
 113              	.LVL11:
 114 000e 10BD     		pop	{r4, pc}
 115              		.cfi_endproc
 116              	.LFE64:
 117              		.size	usb_task, .-usb_task
 118              		.text
 119              	.Letext0:
 120              		.file 2 "c:\\program files (x86)\\cypress\\psoc creator\\4.2\\psoc creator\\import\\gnu\\arm\\5.4.
 121              		.file 3 "c:\\program files (x86)\\cypress\\psoc creator\\4.2\\psoc creator\\import\\gnu\\arm\\5.4.
 122              		.file 4 "Generated_Source\\PSoC5/cytypes.h"
 123              		.file 5 "usb.h"
 124              		.file 6 "Generated_Source\\PSoC5/USBFS.h"
 125              		.file 7 "Generated_Source\\PSoC5/core_cm3.h"